
kernel.bin:     file format elf32-i386


Disassembly of section .text.init:

00100000 <start-0xc>:
  100000:	02 b0 ad 1b 03 00    	add    0x31bad(%eax),%dh
  100006:	00 00                	add    %al,(%eax)
  100008:	fb                   	sti    
  100009:	4f                   	dec    %edi
  10000a:	52                   	push   %edx
  10000b:	e4                   	.byte 0xe4

0010000c <start>:
  10000c:	fa                   	cli    
  10000d:	bc ff 5f 09 00       	mov    $0x95fff,%esp
  100012:	bd 00 00 00 00       	mov    $0x0,%ebp
  100017:	83 e4 f0             	and    $0xfffffff0,%esp
  10001a:	89 1d 00 70 19 00    	mov    %ebx,0x197000
  100020:	e8 bc 02 00 00       	call   1002e1 <kern_entry>

00100025 <stop>:
  100025:	f4                   	hlt    
  100026:	eb fd                	jmp    100025 <stop>

00100028 <flush>:
  100028:	eb 00                	jmp    10002a <next>

0010002a <next>:
  10002a:	c3                   	ret    

0010002b <make_gdt_desc>:
  10002b:	55                   	push   %ebp
  10002c:	89 e5                	mov    %esp,%ebp
  10002e:	83 ec 18             	sub    $0x18,%esp
  100031:	8b 55 14             	mov    0x14(%ebp),%edx
  100034:	8b 45 18             	mov    0x18(%ebp),%eax
  100037:	88 55 ec             	mov    %dl,-0x14(%ebp)
  10003a:	88 45 e8             	mov    %al,-0x18(%ebp)
  10003d:	8b 45 0c             	mov    0xc(%ebp),%eax
  100040:	89 45 fc             	mov    %eax,-0x4(%ebp)
  100043:	8b 45 10             	mov    0x10(%ebp),%eax
  100046:	66 89 45 f4          	mov    %ax,-0xc(%ebp)
  10004a:	8b 45 fc             	mov    -0x4(%ebp),%eax
  10004d:	66 89 45 f6          	mov    %ax,-0xa(%ebp)
  100051:	8b 45 fc             	mov    -0x4(%ebp),%eax
  100054:	c1 e8 10             	shr    $0x10,%eax
  100057:	88 45 f8             	mov    %al,-0x8(%ebp)
  10005a:	0f b6 45 ec          	movzbl -0x14(%ebp),%eax
  10005e:	88 45 f9             	mov    %al,-0x7(%ebp)
  100061:	8b 45 10             	mov    0x10(%ebp),%eax
  100064:	c1 e8 10             	shr    $0x10,%eax
  100067:	83 e0 0f             	and    $0xf,%eax
  10006a:	89 c2                	mov    %eax,%edx
  10006c:	0f b6 45 e8          	movzbl -0x18(%ebp),%eax
  100070:	01 d0                	add    %edx,%eax
  100072:	88 45 fa             	mov    %al,-0x6(%ebp)
  100075:	8b 45 fc             	mov    -0x4(%ebp),%eax
  100078:	c1 e8 18             	shr    $0x18,%eax
  10007b:	88 45 fb             	mov    %al,-0x5(%ebp)
  10007e:	8b 4d 08             	mov    0x8(%ebp),%ecx
  100081:	8b 45 f4             	mov    -0xc(%ebp),%eax
  100084:	8b 55 f8             	mov    -0x8(%ebp),%edx
  100087:	89 01                	mov    %eax,(%ecx)
  100089:	89 51 04             	mov    %edx,0x4(%ecx)
  10008c:	8b 45 08             	mov    0x8(%ebp),%eax
  10008f:	c9                   	leave  
  100090:	c2 04 00             	ret    $0x4

00100093 <page_create>:
  100093:	55                   	push   %ebp
  100094:	89 e5                	mov    %esp,%ebp
  100096:	53                   	push   %ebx
  100097:	83 ec 2c             	sub    $0x2c,%esp
  10009a:	c7 45 f4 00 00 00 00 	movl   $0x0,-0xc(%ebp)
  1000a1:	eb 12                	jmp    1000b5 <page_create+0x22>
  1000a3:	8b 45 f4             	mov    -0xc(%ebp),%eax
  1000a6:	c7 04 85 00 80 19 00 	movl   $0x0,0x198000(,%eax,4)
  1000ad:	00 00 00 00 
  1000b1:	83 45 f4 01          	addl   $0x1,-0xc(%ebp)
  1000b5:	81 7d f4 ff 03 00 00 	cmpl   $0x3ff,-0xc(%ebp)
  1000bc:	7e e5                	jle    1000a3 <page_create+0x10>
  1000be:	b8 00 90 19 00       	mov    $0x199000,%eax
  1000c3:	83 c8 07             	or     $0x7,%eax
  1000c6:	a3 00 80 19 00       	mov    %eax,0x198000
  1000cb:	b8 00 90 19 00       	mov    $0x199000,%eax
  1000d0:	83 c8 07             	or     $0x7,%eax
  1000d3:	a3 00 8c 19 00       	mov    %eax,0x198c00
  1000d8:	c7 45 f0 00 00 00 00 	movl   $0x0,-0x10(%ebp)
  1000df:	c7 45 ec 00 00 00 00 	movl   $0x0,-0x14(%ebp)
  1000e6:	eb 12                	jmp    1000fa <page_create+0x67>
  1000e8:	8b 45 ec             	mov    -0x14(%ebp),%eax
  1000eb:	c7 04 85 00 90 19 00 	movl   $0x0,0x199000(,%eax,4)
  1000f2:	00 00 00 00 
  1000f6:	83 45 ec 01          	addl   $0x1,-0x14(%ebp)
  1000fa:	81 7d ec ff 03 00 00 	cmpl   $0x3ff,-0x14(%ebp)
  100101:	7e e5                	jle    1000e8 <page_create+0x55>
  100103:	c7 45 e8 00 00 00 00 	movl   $0x0,-0x18(%ebp)
  10010a:	eb 1d                	jmp    100129 <page_create+0x96>
  10010c:	8b 45 f0             	mov    -0x10(%ebp),%eax
  10010f:	83 c8 07             	or     $0x7,%eax
  100112:	89 c2                	mov    %eax,%edx
  100114:	8b 45 e8             	mov    -0x18(%ebp),%eax
  100117:	89 14 85 00 90 19 00 	mov    %edx,0x199000(,%eax,4)
  10011e:	81 45 f0 00 10 00 00 	addl   $0x1000,-0x10(%ebp)
  100125:	83 45 e8 01          	addl   $0x1,-0x18(%ebp)
  100129:	81 7d e8 ff 03 00 00 	cmpl   $0x3ff,-0x18(%ebp)
  100130:	7e da                	jle    10010c <page_create+0x79>
  100132:	a1 00 70 19 00       	mov    0x197000,%eax
  100137:	2d 00 00 00 40       	sub    $0x40000000,%eax
  10013c:	a3 00 70 19 00       	mov    %eax,0x197000
  100141:	bb 18 09 00 00       	mov    $0x918,%ebx
  100146:	8d 45 d0             	lea    -0x30(%ebp),%eax
  100149:	68 c0 00 00 00       	push   $0xc0
  10014e:	68 92 00 00 00       	push   $0x92
  100153:	6a 07                	push   $0x7
  100155:	68 00 80 0b c0       	push   $0xc00b8000
  10015a:	50                   	push   %eax
  10015b:	e8 cb fe ff ff       	call   10002b <make_gdt_desc>
  100160:	83 c4 10             	add    $0x10,%esp
  100163:	8b 45 d0             	mov    -0x30(%ebp),%eax
  100166:	8b 55 d4             	mov    -0x2c(%ebp),%edx
  100169:	89 03                	mov    %eax,(%ebx)
  10016b:	89 53 04             	mov    %edx,0x4(%ebx)
  10016e:	c7 45 d8 2f 00 00 09 	movl   $0x900002f,-0x28(%ebp)
  100175:	c7 45 dc 00 c0 00 00 	movl   $0xc000,-0x24(%ebp)
  10017c:	b8 00 80 19 00       	mov    $0x198000,%eax
  100181:	0f 22 d8             	mov    %eax,%cr3
  100184:	0f 20 c0             	mov    %cr0,%eax
  100187:	89 45 e4             	mov    %eax,-0x1c(%ebp)
  10018a:	81 4d e4 00 00 00 80 	orl    $0x80000000,-0x1c(%ebp)
  100191:	8b 45 e4             	mov    -0x1c(%ebp),%eax
  100194:	0f 22 c0             	mov    %eax,%cr0
  100197:	0f 01 55 d8          	lgdtl  -0x28(%ebp)
  10019b:	e8 88 fe ff ff       	call   100028 <flush>
  1001a0:	90                   	nop
  1001a1:	8b 5d fc             	mov    -0x4(%ebp),%ebx
  1001a4:	c9                   	leave  
  1001a5:	c3                   	ret    

001001a6 <gdt_create>:
  1001a6:	55                   	push   %ebp
  1001a7:	89 e5                	mov    %esp,%ebp
  1001a9:	53                   	push   %ebx
  1001aa:	83 ec 1c             	sub    $0x1c,%esp
  1001ad:	bb 00 09 00 00       	mov    $0x900,%ebx
  1001b2:	8d 45 e0             	lea    -0x20(%ebp),%eax
  1001b5:	6a 00                	push   $0x0
  1001b7:	6a 00                	push   $0x0
  1001b9:	6a 00                	push   $0x0
  1001bb:	6a 00                	push   $0x0
  1001bd:	50                   	push   %eax
  1001be:	e8 68 fe ff ff       	call   10002b <make_gdt_desc>
  1001c3:	83 c4 10             	add    $0x10,%esp
  1001c6:	8b 45 e0             	mov    -0x20(%ebp),%eax
  1001c9:	8b 55 e4             	mov    -0x1c(%ebp),%edx
  1001cc:	89 03                	mov    %eax,(%ebx)
  1001ce:	89 53 04             	mov    %edx,0x4(%ebx)
  1001d1:	bb 08 09 00 00       	mov    $0x908,%ebx
  1001d6:	8d 45 e0             	lea    -0x20(%ebp),%eax
  1001d9:	68 c0 00 00 00       	push   $0xc0
  1001de:	68 98 00 00 00       	push   $0x98
  1001e3:	68 ff ff 0f 00       	push   $0xfffff
  1001e8:	6a 00                	push   $0x0
  1001ea:	50                   	push   %eax
  1001eb:	e8 3b fe ff ff       	call   10002b <make_gdt_desc>
  1001f0:	83 c4 10             	add    $0x10,%esp
  1001f3:	8b 45 e0             	mov    -0x20(%ebp),%eax
  1001f6:	8b 55 e4             	mov    -0x1c(%ebp),%edx
  1001f9:	89 03                	mov    %eax,(%ebx)
  1001fb:	89 53 04             	mov    %edx,0x4(%ebx)
  1001fe:	bb 10 09 00 00       	mov    $0x910,%ebx
  100203:	8d 45 e0             	lea    -0x20(%ebp),%eax
  100206:	68 c0 00 00 00       	push   $0xc0
  10020b:	68 92 00 00 00       	push   $0x92
  100210:	68 ff ff 0f 00       	push   $0xfffff
  100215:	6a 00                	push   $0x0
  100217:	50                   	push   %eax
  100218:	e8 0e fe ff ff       	call   10002b <make_gdt_desc>
  10021d:	83 c4 10             	add    $0x10,%esp
  100220:	8b 45 e0             	mov    -0x20(%ebp),%eax
  100223:	8b 55 e4             	mov    -0x1c(%ebp),%edx
  100226:	89 03                	mov    %eax,(%ebx)
  100228:	89 53 04             	mov    %edx,0x4(%ebx)
  10022b:	bb 18 09 00 00       	mov    $0x918,%ebx
  100230:	8d 45 e0             	lea    -0x20(%ebp),%eax
  100233:	68 c0 00 00 00       	push   $0xc0
  100238:	68 92 00 00 00       	push   $0x92
  10023d:	6a 07                	push   $0x7
  10023f:	68 00 80 0b 00       	push   $0xb8000
  100244:	50                   	push   %eax
  100245:	e8 e1 fd ff ff       	call   10002b <make_gdt_desc>
  10024a:	83 c4 10             	add    $0x10,%esp
  10024d:	8b 45 e0             	mov    -0x20(%ebp),%eax
  100250:	8b 55 e4             	mov    -0x1c(%ebp),%edx
  100253:	89 03                	mov    %eax,(%ebx)
  100255:	89 53 04             	mov    %edx,0x4(%ebx)
  100258:	bb 20 09 00 00       	mov    $0x920,%ebx
  10025d:	8d 45 e0             	lea    -0x20(%ebp),%eax
  100260:	68 c0 00 00 00       	push   $0xc0
  100265:	68 f8 00 00 00       	push   $0xf8
  10026a:	68 ff ff 0f 00       	push   $0xfffff
  10026f:	6a 00                	push   $0x0
  100271:	50                   	push   %eax
  100272:	e8 b4 fd ff ff       	call   10002b <make_gdt_desc>
  100277:	83 c4 10             	add    $0x10,%esp
  10027a:	8b 45 e0             	mov    -0x20(%ebp),%eax
  10027d:	8b 55 e4             	mov    -0x1c(%ebp),%edx
  100280:	89 03                	mov    %eax,(%ebx)
  100282:	89 53 04             	mov    %edx,0x4(%ebx)
  100285:	bb 28 09 00 00       	mov    $0x928,%ebx
  10028a:	8d 45 e0             	lea    -0x20(%ebp),%eax
  10028d:	68 c0 00 00 00       	push   $0xc0
  100292:	68 f2 00 00 00       	push   $0xf2
  100297:	68 ff ff 0f 00       	push   $0xfffff
  10029c:	6a 00                	push   $0x0
  10029e:	50                   	push   %eax
  10029f:	e8 87 fd ff ff       	call   10002b <make_gdt_desc>
  1002a4:	83 c4 10             	add    $0x10,%esp
  1002a7:	8b 45 e0             	mov    -0x20(%ebp),%eax
  1002aa:	8b 55 e4             	mov    -0x1c(%ebp),%edx
  1002ad:	89 03                	mov    %eax,(%ebx)
  1002af:	89 53 04             	mov    %edx,0x4(%ebx)
  1002b2:	c7 45 f0 2f 00 00 09 	movl   $0x900002f,-0x10(%ebp)
  1002b9:	c7 45 f4 00 00 00 00 	movl   $0x0,-0xc(%ebp)
  1002c0:	0f 01 55 f0          	lgdtl  -0x10(%ebp)
  1002c4:	e8 5f fd ff ff       	call   100028 <flush>
  1002c9:	66 b8 10 00          	mov    $0x10,%ax
  1002cd:	8e d8                	mov    %eax,%ds
  1002cf:	66 b8 10 00          	mov    $0x10,%ax
  1002d3:	8e c0                	mov    %eax,%es
  1002d5:	66 b8 10 00          	mov    $0x10,%ax
  1002d9:	8e d0                	mov    %eax,%ss
  1002db:	90                   	nop
  1002dc:	8b 5d fc             	mov    -0x4(%ebp),%ebx
  1002df:	c9                   	leave  
  1002e0:	c3                   	ret    

001002e1 <kern_entry>:
  1002e1:	55                   	push   %ebp
  1002e2:	89 e5                	mov    %esp,%ebp
  1002e4:	83 ec 18             	sub    $0x18,%esp
  1002e7:	e8 ba fe ff ff       	call   1001a6 <gdt_create>
  1002ec:	e8 a2 fd ff ff       	call   100093 <page_create>
  1002f1:	89 e0                	mov    %esp,%eax
  1002f3:	89 45 f4             	mov    %eax,-0xc(%ebp)
  1002f6:	81 6d f4 00 00 00 40 	subl   $0x40000000,-0xc(%ebp)
  1002fd:	8b 45 f4             	mov    -0xc(%ebp),%eax
  100300:	89 c4                	mov    %eax,%esp
  100302:	e8 f9 9c 09 c0       	call   c019a000 <start_kernel>
  100307:	90                   	nop
  100308:	c9                   	leave  
  100309:	c3                   	ret    
  10030a:	66 90                	xchg   %ax,%ax
  10030c:	66 90                	xchg   %ax,%ax
  10030e:	66 90                	xchg   %ax,%ax
  100310:	66 90                	xchg   %ax,%ax
  100312:	66 90                	xchg   %ax,%ax
  100314:	66 90                	xchg   %ax,%ax
  100316:	66 90                	xchg   %ax,%ax
  100318:	66 90                	xchg   %ax,%ax
  10031a:	66 90                	xchg   %ax,%ax
  10031c:	66 90                	xchg   %ax,%ax
  10031e:	66 90                	xchg   %ax,%ax
  100320:	66 90                	xchg   %ax,%ax
  100322:	66 90                	xchg   %ax,%ax
  100324:	66 90                	xchg   %ax,%ax
  100326:	66 90                	xchg   %ax,%ax
  100328:	66 90                	xchg   %ax,%ax
  10032a:	66 90                	xchg   %ax,%ax
  10032c:	66 90                	xchg   %ax,%ax
  10032e:	66 90                	xchg   %ax,%ax
  100330:	66 90                	xchg   %ax,%ax
  100332:	66 90                	xchg   %ax,%ax
  100334:	66 90                	xchg   %ax,%ax
  100336:	66 90                	xchg   %ax,%ax
  100338:	66 90                	xchg   %ax,%ax
  10033a:	66 90                	xchg   %ax,%ax
  10033c:	66 90                	xchg   %ax,%ax
  10033e:	66 90                	xchg   %ax,%ax
  100340:	66 90                	xchg   %ax,%ax
  100342:	66 90                	xchg   %ax,%ax
  100344:	66 90                	xchg   %ax,%ax
  100346:	66 90                	xchg   %ax,%ax
  100348:	66 90                	xchg   %ax,%ax
  10034a:	66 90                	xchg   %ax,%ax
  10034c:	66 90                	xchg   %ax,%ax
  10034e:	66 90                	xchg   %ax,%ax
  100350:	66 90                	xchg   %ax,%ax
  100352:	66 90                	xchg   %ax,%ax
  100354:	66 90                	xchg   %ax,%ax
  100356:	66 90                	xchg   %ax,%ax
  100358:	66 90                	xchg   %ax,%ax
  10035a:	66 90                	xchg   %ax,%ax
  10035c:	66 90                	xchg   %ax,%ax
  10035e:	66 90                	xchg   %ax,%ax
  100360:	66 90                	xchg   %ax,%ax
  100362:	66 90                	xchg   %ax,%ax
  100364:	66 90                	xchg   %ax,%ax
  100366:	66 90                	xchg   %ax,%ax
  100368:	66 90                	xchg   %ax,%ax
  10036a:	66 90                	xchg   %ax,%ax
  10036c:	66 90                	xchg   %ax,%ax
  10036e:	66 90                	xchg   %ax,%ax
  100370:	66 90                	xchg   %ax,%ax
  100372:	66 90                	xchg   %ax,%ax
  100374:	66 90                	xchg   %ax,%ax
  100376:	66 90                	xchg   %ax,%ax
  100378:	66 90                	xchg   %ax,%ax
  10037a:	66 90                	xchg   %ax,%ax
  10037c:	66 90                	xchg   %ax,%ax
  10037e:	66 90                	xchg   %ax,%ax
  100380:	66 90                	xchg   %ax,%ax
  100382:	66 90                	xchg   %ax,%ax
  100384:	66 90                	xchg   %ax,%ax
  100386:	66 90                	xchg   %ax,%ax
  100388:	66 90                	xchg   %ax,%ax
  10038a:	66 90                	xchg   %ax,%ax
  10038c:	66 90                	xchg   %ax,%ax
  10038e:	66 90                	xchg   %ax,%ax
  100390:	66 90                	xchg   %ax,%ax
  100392:	66 90                	xchg   %ax,%ax
  100394:	66 90                	xchg   %ax,%ax
  100396:	66 90                	xchg   %ax,%ax
  100398:	66 90                	xchg   %ax,%ax
  10039a:	66 90                	xchg   %ax,%ax
  10039c:	66 90                	xchg   %ax,%ax
  10039e:	66 90                	xchg   %ax,%ax
  1003a0:	66 90                	xchg   %ax,%ax
  1003a2:	66 90                	xchg   %ax,%ax
  1003a4:	66 90                	xchg   %ax,%ax
  1003a6:	66 90                	xchg   %ax,%ax
  1003a8:	66 90                	xchg   %ax,%ax
  1003aa:	66 90                	xchg   %ax,%ax
  1003ac:	66 90                	xchg   %ax,%ax
  1003ae:	66 90                	xchg   %ax,%ax
  1003b0:	66 90                	xchg   %ax,%ax
  1003b2:	66 90                	xchg   %ax,%ax
  1003b4:	66 90                	xchg   %ax,%ax
  1003b6:	66 90                	xchg   %ax,%ax
  1003b8:	66 90                	xchg   %ax,%ax
  1003ba:	66 90                	xchg   %ax,%ax
  1003bc:	66 90                	xchg   %ax,%ax
  1003be:	66 90                	xchg   %ax,%ax
  1003c0:	66 90                	xchg   %ax,%ax
  1003c2:	66 90                	xchg   %ax,%ax
  1003c4:	66 90                	xchg   %ax,%ax
  1003c6:	66 90                	xchg   %ax,%ax
  1003c8:	66 90                	xchg   %ax,%ax
  1003ca:	66 90                	xchg   %ax,%ax
  1003cc:	66 90                	xchg   %ax,%ax
  1003ce:	66 90                	xchg   %ax,%ax
  1003d0:	66 90                	xchg   %ax,%ax
  1003d2:	66 90                	xchg   %ax,%ax
  1003d4:	66 90                	xchg   %ax,%ax
  1003d6:	66 90                	xchg   %ax,%ax
  1003d8:	66 90                	xchg   %ax,%ax
  1003da:	66 90                	xchg   %ax,%ax
  1003dc:	66 90                	xchg   %ax,%ax
  1003de:	66 90                	xchg   %ax,%ax
  1003e0:	66 90                	xchg   %ax,%ax
  1003e2:	66 90                	xchg   %ax,%ax
  1003e4:	66 90                	xchg   %ax,%ax
  1003e6:	66 90                	xchg   %ax,%ax
  1003e8:	66 90                	xchg   %ax,%ax
  1003ea:	66 90                	xchg   %ax,%ax
  1003ec:	66 90                	xchg   %ax,%ax
  1003ee:	66 90                	xchg   %ax,%ax
  1003f0:	66 90                	xchg   %ax,%ax
  1003f2:	66 90                	xchg   %ax,%ax
  1003f4:	66 90                	xchg   %ax,%ax
  1003f6:	66 90                	xchg   %ax,%ax
  1003f8:	66 90                	xchg   %ax,%ax
  1003fa:	66 90                	xchg   %ax,%ax
  1003fc:	66 90                	xchg   %ax,%ax
  1003fe:	66 90                	xchg   %ax,%ax
  100400:	66 90                	xchg   %ax,%ax
  100402:	66 90                	xchg   %ax,%ax
  100404:	66 90                	xchg   %ax,%ax
  100406:	66 90                	xchg   %ax,%ax
  100408:	66 90                	xchg   %ax,%ax
  10040a:	66 90                	xchg   %ax,%ax
  10040c:	66 90                	xchg   %ax,%ax
  10040e:	66 90                	xchg   %ax,%ax
  100410:	66 90                	xchg   %ax,%ax
  100412:	66 90                	xchg   %ax,%ax
  100414:	66 90                	xchg   %ax,%ax
  100416:	66 90                	xchg   %ax,%ax
  100418:	66 90                	xchg   %ax,%ax
  10041a:	66 90                	xchg   %ax,%ax
  10041c:	66 90                	xchg   %ax,%ax
  10041e:	66 90                	xchg   %ax,%ax
  100420:	66 90                	xchg   %ax,%ax
  100422:	66 90                	xchg   %ax,%ax
  100424:	66 90                	xchg   %ax,%ax
  100426:	66 90                	xchg   %ax,%ax
  100428:	66 90                	xchg   %ax,%ax
  10042a:	66 90                	xchg   %ax,%ax
  10042c:	66 90                	xchg   %ax,%ax
  10042e:	66 90                	xchg   %ax,%ax
  100430:	66 90                	xchg   %ax,%ax
  100432:	66 90                	xchg   %ax,%ax
  100434:	66 90                	xchg   %ax,%ax
  100436:	66 90                	xchg   %ax,%ax
  100438:	66 90                	xchg   %ax,%ax
  10043a:	66 90                	xchg   %ax,%ax
  10043c:	66 90                	xchg   %ax,%ax
  10043e:	66 90                	xchg   %ax,%ax
  100440:	66 90                	xchg   %ax,%ax
  100442:	66 90                	xchg   %ax,%ax
  100444:	66 90                	xchg   %ax,%ax
  100446:	66 90                	xchg   %ax,%ax
  100448:	66 90                	xchg   %ax,%ax
  10044a:	66 90                	xchg   %ax,%ax
  10044c:	66 90                	xchg   %ax,%ax
  10044e:	66 90                	xchg   %ax,%ax
  100450:	66 90                	xchg   %ax,%ax
  100452:	66 90                	xchg   %ax,%ax
  100454:	66 90                	xchg   %ax,%ax
  100456:	66 90                	xchg   %ax,%ax
  100458:	66 90                	xchg   %ax,%ax
  10045a:	66 90                	xchg   %ax,%ax
  10045c:	66 90                	xchg   %ax,%ax
  10045e:	66 90                	xchg   %ax,%ax
  100460:	66 90                	xchg   %ax,%ax
  100462:	66 90                	xchg   %ax,%ax
  100464:	66 90                	xchg   %ax,%ax
  100466:	66 90                	xchg   %ax,%ax
  100468:	66 90                	xchg   %ax,%ax
  10046a:	66 90                	xchg   %ax,%ax
  10046c:	66 90                	xchg   %ax,%ax
  10046e:	66 90                	xchg   %ax,%ax
  100470:	66 90                	xchg   %ax,%ax
  100472:	66 90                	xchg   %ax,%ax
  100474:	66 90                	xchg   %ax,%ax
  100476:	66 90                	xchg   %ax,%ax
  100478:	66 90                	xchg   %ax,%ax
  10047a:	66 90                	xchg   %ax,%ax
  10047c:	66 90                	xchg   %ax,%ax
  10047e:	66 90                	xchg   %ax,%ax
  100480:	66 90                	xchg   %ax,%ax
  100482:	66 90                	xchg   %ax,%ax
  100484:	66 90                	xchg   %ax,%ax
  100486:	66 90                	xchg   %ax,%ax
  100488:	66 90                	xchg   %ax,%ax
  10048a:	66 90                	xchg   %ax,%ax
  10048c:	66 90                	xchg   %ax,%ax
  10048e:	66 90                	xchg   %ax,%ax
  100490:	66 90                	xchg   %ax,%ax
  100492:	66 90                	xchg   %ax,%ax
  100494:	66 90                	xchg   %ax,%ax
  100496:	66 90                	xchg   %ax,%ax
  100498:	66 90                	xchg   %ax,%ax
  10049a:	66 90                	xchg   %ax,%ax
  10049c:	66 90                	xchg   %ax,%ax
  10049e:	66 90                	xchg   %ax,%ax
  1004a0:	66 90                	xchg   %ax,%ax
  1004a2:	66 90                	xchg   %ax,%ax
  1004a4:	66 90                	xchg   %ax,%ax
  1004a6:	66 90                	xchg   %ax,%ax
  1004a8:	66 90                	xchg   %ax,%ax
  1004aa:	66 90                	xchg   %ax,%ax
  1004ac:	66 90                	xchg   %ax,%ax
  1004ae:	66 90                	xchg   %ax,%ax
  1004b0:	66 90                	xchg   %ax,%ax
  1004b2:	66 90                	xchg   %ax,%ax
  1004b4:	66 90                	xchg   %ax,%ax
  1004b6:	66 90                	xchg   %ax,%ax
  1004b8:	66 90                	xchg   %ax,%ax
  1004ba:	66 90                	xchg   %ax,%ax
  1004bc:	66 90                	xchg   %ax,%ax
  1004be:	66 90                	xchg   %ax,%ax
  1004c0:	66 90                	xchg   %ax,%ax
  1004c2:	66 90                	xchg   %ax,%ax
  1004c4:	66 90                	xchg   %ax,%ax
  1004c6:	66 90                	xchg   %ax,%ax
  1004c8:	66 90                	xchg   %ax,%ax
  1004ca:	66 90                	xchg   %ax,%ax
  1004cc:	66 90                	xchg   %ax,%ax
  1004ce:	66 90                	xchg   %ax,%ax
  1004d0:	66 90                	xchg   %ax,%ax
  1004d2:	66 90                	xchg   %ax,%ax
  1004d4:	66 90                	xchg   %ax,%ax
  1004d6:	66 90                	xchg   %ax,%ax
  1004d8:	66 90                	xchg   %ax,%ax
  1004da:	66 90                	xchg   %ax,%ax
  1004dc:	66 90                	xchg   %ax,%ax
  1004de:	66 90                	xchg   %ax,%ax
  1004e0:	66 90                	xchg   %ax,%ax
  1004e2:	66 90                	xchg   %ax,%ax
  1004e4:	66 90                	xchg   %ax,%ax
  1004e6:	66 90                	xchg   %ax,%ax
  1004e8:	66 90                	xchg   %ax,%ax
  1004ea:	66 90                	xchg   %ax,%ax
  1004ec:	66 90                	xchg   %ax,%ax
  1004ee:	66 90                	xchg   %ax,%ax
  1004f0:	66 90                	xchg   %ax,%ax
  1004f2:	66 90                	xchg   %ax,%ax
  1004f4:	66 90                	xchg   %ax,%ax
  1004f6:	66 90                	xchg   %ax,%ax
  1004f8:	66 90                	xchg   %ax,%ax
  1004fa:	66 90                	xchg   %ax,%ax
  1004fc:	66 90                	xchg   %ax,%ax
  1004fe:	66 90                	xchg   %ax,%ax
  100500:	66 90                	xchg   %ax,%ax
  100502:	66 90                	xchg   %ax,%ax
  100504:	66 90                	xchg   %ax,%ax
  100506:	66 90                	xchg   %ax,%ax
  100508:	66 90                	xchg   %ax,%ax
  10050a:	66 90                	xchg   %ax,%ax
  10050c:	66 90                	xchg   %ax,%ax
  10050e:	66 90                	xchg   %ax,%ax
  100510:	66 90                	xchg   %ax,%ax
  100512:	66 90                	xchg   %ax,%ax
  100514:	66 90                	xchg   %ax,%ax
  100516:	66 90                	xchg   %ax,%ax
  100518:	66 90                	xchg   %ax,%ax
  10051a:	66 90                	xchg   %ax,%ax
  10051c:	66 90                	xchg   %ax,%ax
  10051e:	66 90                	xchg   %ax,%ax
  100520:	66 90                	xchg   %ax,%ax
  100522:	66 90                	xchg   %ax,%ax
  100524:	66 90                	xchg   %ax,%ax
  100526:	66 90                	xchg   %ax,%ax
  100528:	66 90                	xchg   %ax,%ax
  10052a:	66 90                	xchg   %ax,%ax
  10052c:	66 90                	xchg   %ax,%ax
  10052e:	66 90                	xchg   %ax,%ax
  100530:	66 90                	xchg   %ax,%ax
  100532:	66 90                	xchg   %ax,%ax
  100534:	66 90                	xchg   %ax,%ax
  100536:	66 90                	xchg   %ax,%ax
  100538:	66 90                	xchg   %ax,%ax
  10053a:	66 90                	xchg   %ax,%ax
  10053c:	66 90                	xchg   %ax,%ax
  10053e:	66 90                	xchg   %ax,%ax
  100540:	66 90                	xchg   %ax,%ax
  100542:	66 90                	xchg   %ax,%ax
  100544:	66 90                	xchg   %ax,%ax
  100546:	66 90                	xchg   %ax,%ax
  100548:	66 90                	xchg   %ax,%ax
  10054a:	66 90                	xchg   %ax,%ax
  10054c:	66 90                	xchg   %ax,%ax
  10054e:	66 90                	xchg   %ax,%ax
  100550:	66 90                	xchg   %ax,%ax
  100552:	66 90                	xchg   %ax,%ax
  100554:	66 90                	xchg   %ax,%ax
  100556:	66 90                	xchg   %ax,%ax
  100558:	66 90                	xchg   %ax,%ax
  10055a:	66 90                	xchg   %ax,%ax
  10055c:	66 90                	xchg   %ax,%ax
  10055e:	66 90                	xchg   %ax,%ax
  100560:	66 90                	xchg   %ax,%ax
  100562:	66 90                	xchg   %ax,%ax
  100564:	66 90                	xchg   %ax,%ax
  100566:	66 90                	xchg   %ax,%ax
  100568:	66 90                	xchg   %ax,%ax
  10056a:	66 90                	xchg   %ax,%ax
  10056c:	66 90                	xchg   %ax,%ax
  10056e:	66 90                	xchg   %ax,%ax
  100570:	66 90                	xchg   %ax,%ax
  100572:	66 90                	xchg   %ax,%ax
  100574:	66 90                	xchg   %ax,%ax
  100576:	66 90                	xchg   %ax,%ax
  100578:	66 90                	xchg   %ax,%ax
  10057a:	66 90                	xchg   %ax,%ax
  10057c:	66 90                	xchg   %ax,%ax
  10057e:	66 90                	xchg   %ax,%ax
  100580:	66 90                	xchg   %ax,%ax
  100582:	66 90                	xchg   %ax,%ax
  100584:	66 90                	xchg   %ax,%ax
  100586:	66 90                	xchg   %ax,%ax
  100588:	66 90                	xchg   %ax,%ax
  10058a:	66 90                	xchg   %ax,%ax
  10058c:	66 90                	xchg   %ax,%ax
  10058e:	66 90                	xchg   %ax,%ax
  100590:	66 90                	xchg   %ax,%ax
  100592:	66 90                	xchg   %ax,%ax
  100594:	66 90                	xchg   %ax,%ax
  100596:	66 90                	xchg   %ax,%ax
  100598:	66 90                	xchg   %ax,%ax
  10059a:	66 90                	xchg   %ax,%ax
  10059c:	66 90                	xchg   %ax,%ax
  10059e:	66 90                	xchg   %ax,%ax
  1005a0:	66 90                	xchg   %ax,%ax
  1005a2:	66 90                	xchg   %ax,%ax
  1005a4:	66 90                	xchg   %ax,%ax
  1005a6:	66 90                	xchg   %ax,%ax
  1005a8:	66 90                	xchg   %ax,%ax
  1005aa:	66 90                	xchg   %ax,%ax
  1005ac:	66 90                	xchg   %ax,%ax
  1005ae:	66 90                	xchg   %ax,%ax
  1005b0:	66 90                	xchg   %ax,%ax
  1005b2:	66 90                	xchg   %ax,%ax
  1005b4:	66 90                	xchg   %ax,%ax
  1005b6:	66 90                	xchg   %ax,%ax
  1005b8:	66 90                	xchg   %ax,%ax
  1005ba:	66 90                	xchg   %ax,%ax
  1005bc:	66 90                	xchg   %ax,%ax
  1005be:	66 90                	xchg   %ax,%ax
  1005c0:	66 90                	xchg   %ax,%ax
  1005c2:	66 90                	xchg   %ax,%ax
  1005c4:	66 90                	xchg   %ax,%ax
  1005c6:	66 90                	xchg   %ax,%ax
  1005c8:	66 90                	xchg   %ax,%ax
  1005ca:	66 90                	xchg   %ax,%ax
  1005cc:	66 90                	xchg   %ax,%ax
  1005ce:	66 90                	xchg   %ax,%ax
  1005d0:	66 90                	xchg   %ax,%ax
  1005d2:	66 90                	xchg   %ax,%ax
  1005d4:	66 90                	xchg   %ax,%ax
  1005d6:	66 90                	xchg   %ax,%ax
  1005d8:	66 90                	xchg   %ax,%ax
  1005da:	66 90                	xchg   %ax,%ax
  1005dc:	66 90                	xchg   %ax,%ax
  1005de:	66 90                	xchg   %ax,%ax
  1005e0:	66 90                	xchg   %ax,%ax
  1005e2:	66 90                	xchg   %ax,%ax
  1005e4:	66 90                	xchg   %ax,%ax
  1005e6:	66 90                	xchg   %ax,%ax
  1005e8:	66 90                	xchg   %ax,%ax
  1005ea:	66 90                	xchg   %ax,%ax
  1005ec:	66 90                	xchg   %ax,%ax
  1005ee:	66 90                	xchg   %ax,%ax
  1005f0:	66 90                	xchg   %ax,%ax
  1005f2:	66 90                	xchg   %ax,%ax
  1005f4:	66 90                	xchg   %ax,%ax
  1005f6:	66 90                	xchg   %ax,%ax
  1005f8:	66 90                	xchg   %ax,%ax
  1005fa:	66 90                	xchg   %ax,%ax
  1005fc:	66 90                	xchg   %ax,%ax
  1005fe:	66 90                	xchg   %ax,%ax
  100600:	66 90                	xchg   %ax,%ax
  100602:	66 90                	xchg   %ax,%ax
  100604:	66 90                	xchg   %ax,%ax
  100606:	66 90                	xchg   %ax,%ax
  100608:	66 90                	xchg   %ax,%ax
  10060a:	66 90                	xchg   %ax,%ax
  10060c:	66 90                	xchg   %ax,%ax
  10060e:	66 90                	xchg   %ax,%ax
  100610:	66 90                	xchg   %ax,%ax
  100612:	66 90                	xchg   %ax,%ax
  100614:	66 90                	xchg   %ax,%ax
  100616:	66 90                	xchg   %ax,%ax
  100618:	66 90                	xchg   %ax,%ax
  10061a:	66 90                	xchg   %ax,%ax
  10061c:	66 90                	xchg   %ax,%ax
  10061e:	66 90                	xchg   %ax,%ax
  100620:	66 90                	xchg   %ax,%ax
  100622:	66 90                	xchg   %ax,%ax
  100624:	66 90                	xchg   %ax,%ax
  100626:	66 90                	xchg   %ax,%ax
  100628:	66 90                	xchg   %ax,%ax
  10062a:	66 90                	xchg   %ax,%ax
  10062c:	66 90                	xchg   %ax,%ax
  10062e:	66 90                	xchg   %ax,%ax
  100630:	66 90                	xchg   %ax,%ax
  100632:	66 90                	xchg   %ax,%ax
  100634:	66 90                	xchg   %ax,%ax
  100636:	66 90                	xchg   %ax,%ax
  100638:	66 90                	xchg   %ax,%ax
  10063a:	66 90                	xchg   %ax,%ax
  10063c:	66 90                	xchg   %ax,%ax
  10063e:	66 90                	xchg   %ax,%ax
  100640:	66 90                	xchg   %ax,%ax
  100642:	66 90                	xchg   %ax,%ax
  100644:	66 90                	xchg   %ax,%ax
  100646:	66 90                	xchg   %ax,%ax
  100648:	66 90                	xchg   %ax,%ax
  10064a:	66 90                	xchg   %ax,%ax
  10064c:	66 90                	xchg   %ax,%ax
  10064e:	66 90                	xchg   %ax,%ax
  100650:	66 90                	xchg   %ax,%ax
  100652:	66 90                	xchg   %ax,%ax
  100654:	66 90                	xchg   %ax,%ax
  100656:	66 90                	xchg   %ax,%ax
  100658:	66 90                	xchg   %ax,%ax
  10065a:	66 90                	xchg   %ax,%ax
  10065c:	66 90                	xchg   %ax,%ax
  10065e:	66 90                	xchg   %ax,%ax
  100660:	66 90                	xchg   %ax,%ax
  100662:	66 90                	xchg   %ax,%ax
  100664:	66 90                	xchg   %ax,%ax
  100666:	66 90                	xchg   %ax,%ax
  100668:	66 90                	xchg   %ax,%ax
  10066a:	66 90                	xchg   %ax,%ax
  10066c:	66 90                	xchg   %ax,%ax
  10066e:	66 90                	xchg   %ax,%ax
  100670:	66 90                	xchg   %ax,%ax
  100672:	66 90                	xchg   %ax,%ax
  100674:	66 90                	xchg   %ax,%ax
  100676:	66 90                	xchg   %ax,%ax
  100678:	66 90                	xchg   %ax,%ax
  10067a:	66 90                	xchg   %ax,%ax
  10067c:	66 90                	xchg   %ax,%ax
  10067e:	66 90                	xchg   %ax,%ax
  100680:	66 90                	xchg   %ax,%ax
  100682:	66 90                	xchg   %ax,%ax
  100684:	66 90                	xchg   %ax,%ax
  100686:	66 90                	xchg   %ax,%ax
  100688:	66 90                	xchg   %ax,%ax
  10068a:	66 90                	xchg   %ax,%ax
  10068c:	66 90                	xchg   %ax,%ax
  10068e:	66 90                	xchg   %ax,%ax
  100690:	66 90                	xchg   %ax,%ax
  100692:	66 90                	xchg   %ax,%ax
  100694:	66 90                	xchg   %ax,%ax
  100696:	66 90                	xchg   %ax,%ax
  100698:	66 90                	xchg   %ax,%ax
  10069a:	66 90                	xchg   %ax,%ax
  10069c:	66 90                	xchg   %ax,%ax
  10069e:	66 90                	xchg   %ax,%ax
  1006a0:	66 90                	xchg   %ax,%ax
  1006a2:	66 90                	xchg   %ax,%ax
  1006a4:	66 90                	xchg   %ax,%ax
  1006a6:	66 90                	xchg   %ax,%ax
  1006a8:	66 90                	xchg   %ax,%ax
  1006aa:	66 90                	xchg   %ax,%ax
  1006ac:	66 90                	xchg   %ax,%ax
  1006ae:	66 90                	xchg   %ax,%ax
  1006b0:	66 90                	xchg   %ax,%ax
  1006b2:	66 90                	xchg   %ax,%ax
  1006b4:	66 90                	xchg   %ax,%ax
  1006b6:	66 90                	xchg   %ax,%ax
  1006b8:	66 90                	xchg   %ax,%ax
  1006ba:	66 90                	xchg   %ax,%ax
  1006bc:	66 90                	xchg   %ax,%ax
  1006be:	66 90                	xchg   %ax,%ax
  1006c0:	66 90                	xchg   %ax,%ax
  1006c2:	66 90                	xchg   %ax,%ax
  1006c4:	66 90                	xchg   %ax,%ax
  1006c6:	66 90                	xchg   %ax,%ax
  1006c8:	66 90                	xchg   %ax,%ax
  1006ca:	66 90                	xchg   %ax,%ax
  1006cc:	66 90                	xchg   %ax,%ax
  1006ce:	66 90                	xchg   %ax,%ax
  1006d0:	66 90                	xchg   %ax,%ax
  1006d2:	66 90                	xchg   %ax,%ax
  1006d4:	66 90                	xchg   %ax,%ax
  1006d6:	66 90                	xchg   %ax,%ax
  1006d8:	66 90                	xchg   %ax,%ax
  1006da:	66 90                	xchg   %ax,%ax
  1006dc:	66 90                	xchg   %ax,%ax
  1006de:	66 90                	xchg   %ax,%ax
  1006e0:	66 90                	xchg   %ax,%ax
  1006e2:	66 90                	xchg   %ax,%ax
  1006e4:	66 90                	xchg   %ax,%ax
  1006e6:	66 90                	xchg   %ax,%ax
  1006e8:	66 90                	xchg   %ax,%ax
  1006ea:	66 90                	xchg   %ax,%ax
  1006ec:	66 90                	xchg   %ax,%ax
  1006ee:	66 90                	xchg   %ax,%ax
  1006f0:	66 90                	xchg   %ax,%ax
  1006f2:	66 90                	xchg   %ax,%ax
  1006f4:	66 90                	xchg   %ax,%ax
  1006f6:	66 90                	xchg   %ax,%ax
  1006f8:	66 90                	xchg   %ax,%ax
  1006fa:	66 90                	xchg   %ax,%ax
  1006fc:	66 90                	xchg   %ax,%ax
  1006fe:	66 90                	xchg   %ax,%ax
  100700:	66 90                	xchg   %ax,%ax
  100702:	66 90                	xchg   %ax,%ax
  100704:	66 90                	xchg   %ax,%ax
  100706:	66 90                	xchg   %ax,%ax
  100708:	66 90                	xchg   %ax,%ax
  10070a:	66 90                	xchg   %ax,%ax
  10070c:	66 90                	xchg   %ax,%ax
  10070e:	66 90                	xchg   %ax,%ax
  100710:	66 90                	xchg   %ax,%ax
  100712:	66 90                	xchg   %ax,%ax
  100714:	66 90                	xchg   %ax,%ax
  100716:	66 90                	xchg   %ax,%ax
  100718:	66 90                	xchg   %ax,%ax
  10071a:	66 90                	xchg   %ax,%ax
  10071c:	66 90                	xchg   %ax,%ax
  10071e:	66 90                	xchg   %ax,%ax
  100720:	66 90                	xchg   %ax,%ax
  100722:	66 90                	xchg   %ax,%ax
  100724:	66 90                	xchg   %ax,%ax
  100726:	66 90                	xchg   %ax,%ax
  100728:	66 90                	xchg   %ax,%ax
  10072a:	66 90                	xchg   %ax,%ax
  10072c:	66 90                	xchg   %ax,%ax
  10072e:	66 90                	xchg   %ax,%ax
  100730:	66 90                	xchg   %ax,%ax
  100732:	66 90                	xchg   %ax,%ax
  100734:	66 90                	xchg   %ax,%ax
  100736:	66 90                	xchg   %ax,%ax
  100738:	66 90                	xchg   %ax,%ax
  10073a:	66 90                	xchg   %ax,%ax
  10073c:	66 90                	xchg   %ax,%ax
  10073e:	66 90                	xchg   %ax,%ax
  100740:	66 90                	xchg   %ax,%ax
  100742:	66 90                	xchg   %ax,%ax
  100744:	66 90                	xchg   %ax,%ax
  100746:	66 90                	xchg   %ax,%ax
  100748:	66 90                	xchg   %ax,%ax
  10074a:	66 90                	xchg   %ax,%ax
  10074c:	66 90                	xchg   %ax,%ax
  10074e:	66 90                	xchg   %ax,%ax
  100750:	66 90                	xchg   %ax,%ax
  100752:	66 90                	xchg   %ax,%ax
  100754:	66 90                	xchg   %ax,%ax
  100756:	66 90                	xchg   %ax,%ax
  100758:	66 90                	xchg   %ax,%ax
  10075a:	66 90                	xchg   %ax,%ax
  10075c:	66 90                	xchg   %ax,%ax
  10075e:	66 90                	xchg   %ax,%ax
  100760:	66 90                	xchg   %ax,%ax
  100762:	66 90                	xchg   %ax,%ax
  100764:	66 90                	xchg   %ax,%ax
  100766:	66 90                	xchg   %ax,%ax
  100768:	66 90                	xchg   %ax,%ax
  10076a:	66 90                	xchg   %ax,%ax
  10076c:	66 90                	xchg   %ax,%ax
  10076e:	66 90                	xchg   %ax,%ax
  100770:	66 90                	xchg   %ax,%ax
  100772:	66 90                	xchg   %ax,%ax
  100774:	66 90                	xchg   %ax,%ax
  100776:	66 90                	xchg   %ax,%ax
  100778:	66 90                	xchg   %ax,%ax
  10077a:	66 90                	xchg   %ax,%ax
  10077c:	66 90                	xchg   %ax,%ax
  10077e:	66 90                	xchg   %ax,%ax
  100780:	66 90                	xchg   %ax,%ax
  100782:	66 90                	xchg   %ax,%ax
  100784:	66 90                	xchg   %ax,%ax
  100786:	66 90                	xchg   %ax,%ax
  100788:	66 90                	xchg   %ax,%ax
  10078a:	66 90                	xchg   %ax,%ax
  10078c:	66 90                	xchg   %ax,%ax
  10078e:	66 90                	xchg   %ax,%ax
  100790:	66 90                	xchg   %ax,%ax
  100792:	66 90                	xchg   %ax,%ax
  100794:	66 90                	xchg   %ax,%ax
  100796:	66 90                	xchg   %ax,%ax
  100798:	66 90                	xchg   %ax,%ax
  10079a:	66 90                	xchg   %ax,%ax
  10079c:	66 90                	xchg   %ax,%ax
  10079e:	66 90                	xchg   %ax,%ax
  1007a0:	66 90                	xchg   %ax,%ax
  1007a2:	66 90                	xchg   %ax,%ax
  1007a4:	66 90                	xchg   %ax,%ax
  1007a6:	66 90                	xchg   %ax,%ax
  1007a8:	66 90                	xchg   %ax,%ax
  1007aa:	66 90                	xchg   %ax,%ax
  1007ac:	66 90                	xchg   %ax,%ax
  1007ae:	66 90                	xchg   %ax,%ax
  1007b0:	66 90                	xchg   %ax,%ax
  1007b2:	66 90                	xchg   %ax,%ax
  1007b4:	66 90                	xchg   %ax,%ax
  1007b6:	66 90                	xchg   %ax,%ax
  1007b8:	66 90                	xchg   %ax,%ax
  1007ba:	66 90                	xchg   %ax,%ax
  1007bc:	66 90                	xchg   %ax,%ax
  1007be:	66 90                	xchg   %ax,%ax
  1007c0:	66 90                	xchg   %ax,%ax
  1007c2:	66 90                	xchg   %ax,%ax
  1007c4:	66 90                	xchg   %ax,%ax
  1007c6:	66 90                	xchg   %ax,%ax
  1007c8:	66 90                	xchg   %ax,%ax
  1007ca:	66 90                	xchg   %ax,%ax
  1007cc:	66 90                	xchg   %ax,%ax
  1007ce:	66 90                	xchg   %ax,%ax
  1007d0:	66 90                	xchg   %ax,%ax
  1007d2:	66 90                	xchg   %ax,%ax
  1007d4:	66 90                	xchg   %ax,%ax
  1007d6:	66 90                	xchg   %ax,%ax
  1007d8:	66 90                	xchg   %ax,%ax
  1007da:	66 90                	xchg   %ax,%ax
  1007dc:	66 90                	xchg   %ax,%ax
  1007de:	66 90                	xchg   %ax,%ax
  1007e0:	66 90                	xchg   %ax,%ax
  1007e2:	66 90                	xchg   %ax,%ax
  1007e4:	66 90                	xchg   %ax,%ax
  1007e6:	66 90                	xchg   %ax,%ax
  1007e8:	66 90                	xchg   %ax,%ax
  1007ea:	66 90                	xchg   %ax,%ax
  1007ec:	66 90                	xchg   %ax,%ax
  1007ee:	66 90                	xchg   %ax,%ax
  1007f0:	66 90                	xchg   %ax,%ax
  1007f2:	66 90                	xchg   %ax,%ax
  1007f4:	66 90                	xchg   %ax,%ax
  1007f6:	66 90                	xchg   %ax,%ax
  1007f8:	66 90                	xchg   %ax,%ax
  1007fa:	66 90                	xchg   %ax,%ax
  1007fc:	66 90                	xchg   %ax,%ax
  1007fe:	66 90                	xchg   %ax,%ax
  100800:	66 90                	xchg   %ax,%ax
  100802:	66 90                	xchg   %ax,%ax
  100804:	66 90                	xchg   %ax,%ax
  100806:	66 90                	xchg   %ax,%ax
  100808:	66 90                	xchg   %ax,%ax
  10080a:	66 90                	xchg   %ax,%ax
  10080c:	66 90                	xchg   %ax,%ax
  10080e:	66 90                	xchg   %ax,%ax
  100810:	66 90                	xchg   %ax,%ax
  100812:	66 90                	xchg   %ax,%ax
  100814:	66 90                	xchg   %ax,%ax
  100816:	66 90                	xchg   %ax,%ax
  100818:	66 90                	xchg   %ax,%ax
  10081a:	66 90                	xchg   %ax,%ax
  10081c:	66 90                	xchg   %ax,%ax
  10081e:	66 90                	xchg   %ax,%ax
  100820:	66 90                	xchg   %ax,%ax
  100822:	66 90                	xchg   %ax,%ax
  100824:	66 90                	xchg   %ax,%ax
  100826:	66 90                	xchg   %ax,%ax
  100828:	66 90                	xchg   %ax,%ax
  10082a:	66 90                	xchg   %ax,%ax
  10082c:	66 90                	xchg   %ax,%ax
  10082e:	66 90                	xchg   %ax,%ax
  100830:	66 90                	xchg   %ax,%ax
  100832:	66 90                	xchg   %ax,%ax
  100834:	66 90                	xchg   %ax,%ax
  100836:	66 90                	xchg   %ax,%ax
  100838:	66 90                	xchg   %ax,%ax
  10083a:	66 90                	xchg   %ax,%ax
  10083c:	66 90                	xchg   %ax,%ax
  10083e:	66 90                	xchg   %ax,%ax
  100840:	66 90                	xchg   %ax,%ax
  100842:	66 90                	xchg   %ax,%ax
  100844:	66 90                	xchg   %ax,%ax
  100846:	66 90                	xchg   %ax,%ax
  100848:	66 90                	xchg   %ax,%ax
  10084a:	66 90                	xchg   %ax,%ax
  10084c:	66 90                	xchg   %ax,%ax
  10084e:	66 90                	xchg   %ax,%ax
  100850:	66 90                	xchg   %ax,%ax
  100852:	66 90                	xchg   %ax,%ax
  100854:	66 90                	xchg   %ax,%ax
  100856:	66 90                	xchg   %ax,%ax
  100858:	66 90                	xchg   %ax,%ax
  10085a:	66 90                	xchg   %ax,%ax
  10085c:	66 90                	xchg   %ax,%ax
  10085e:	66 90                	xchg   %ax,%ax
  100860:	66 90                	xchg   %ax,%ax
  100862:	66 90                	xchg   %ax,%ax
  100864:	66 90                	xchg   %ax,%ax
  100866:	66 90                	xchg   %ax,%ax
  100868:	66 90                	xchg   %ax,%ax
  10086a:	66 90                	xchg   %ax,%ax
  10086c:	66 90                	xchg   %ax,%ax
  10086e:	66 90                	xchg   %ax,%ax
  100870:	66 90                	xchg   %ax,%ax
  100872:	66 90                	xchg   %ax,%ax
  100874:	66 90                	xchg   %ax,%ax
  100876:	66 90                	xchg   %ax,%ax
  100878:	66 90                	xchg   %ax,%ax
  10087a:	66 90                	xchg   %ax,%ax
  10087c:	66 90                	xchg   %ax,%ax
  10087e:	66 90                	xchg   %ax,%ax
  100880:	66 90                	xchg   %ax,%ax
  100882:	66 90                	xchg   %ax,%ax
  100884:	66 90                	xchg   %ax,%ax
  100886:	66 90                	xchg   %ax,%ax
  100888:	66 90                	xchg   %ax,%ax
  10088a:	66 90                	xchg   %ax,%ax
  10088c:	66 90                	xchg   %ax,%ax
  10088e:	66 90                	xchg   %ax,%ax
  100890:	66 90                	xchg   %ax,%ax
  100892:	66 90                	xchg   %ax,%ax
  100894:	66 90                	xchg   %ax,%ax
  100896:	66 90                	xchg   %ax,%ax
  100898:	66 90                	xchg   %ax,%ax
  10089a:	66 90                	xchg   %ax,%ax
  10089c:	66 90                	xchg   %ax,%ax
  10089e:	66 90                	xchg   %ax,%ax
  1008a0:	66 90                	xchg   %ax,%ax
  1008a2:	66 90                	xchg   %ax,%ax
  1008a4:	66 90                	xchg   %ax,%ax
  1008a6:	66 90                	xchg   %ax,%ax
  1008a8:	66 90                	xchg   %ax,%ax
  1008aa:	66 90                	xchg   %ax,%ax
  1008ac:	66 90                	xchg   %ax,%ax
  1008ae:	66 90                	xchg   %ax,%ax
  1008b0:	66 90                	xchg   %ax,%ax
  1008b2:	66 90                	xchg   %ax,%ax
  1008b4:	66 90                	xchg   %ax,%ax
  1008b6:	66 90                	xchg   %ax,%ax
  1008b8:	66 90                	xchg   %ax,%ax
  1008ba:	66 90                	xchg   %ax,%ax
  1008bc:	66 90                	xchg   %ax,%ax
  1008be:	66 90                	xchg   %ax,%ax
  1008c0:	66 90                	xchg   %ax,%ax
  1008c2:	66 90                	xchg   %ax,%ax
  1008c4:	66 90                	xchg   %ax,%ax
  1008c6:	66 90                	xchg   %ax,%ax
  1008c8:	66 90                	xchg   %ax,%ax
  1008ca:	66 90                	xchg   %ax,%ax
  1008cc:	66 90                	xchg   %ax,%ax
  1008ce:	66 90                	xchg   %ax,%ax
  1008d0:	66 90                	xchg   %ax,%ax
  1008d2:	66 90                	xchg   %ax,%ax
  1008d4:	66 90                	xchg   %ax,%ax
  1008d6:	66 90                	xchg   %ax,%ax
  1008d8:	66 90                	xchg   %ax,%ax
  1008da:	66 90                	xchg   %ax,%ax
  1008dc:	66 90                	xchg   %ax,%ax
  1008de:	66 90                	xchg   %ax,%ax
  1008e0:	66 90                	xchg   %ax,%ax
  1008e2:	66 90                	xchg   %ax,%ax
  1008e4:	66 90                	xchg   %ax,%ax
  1008e6:	66 90                	xchg   %ax,%ax
  1008e8:	66 90                	xchg   %ax,%ax
  1008ea:	66 90                	xchg   %ax,%ax
  1008ec:	66 90                	xchg   %ax,%ax
  1008ee:	66 90                	xchg   %ax,%ax
  1008f0:	66 90                	xchg   %ax,%ax
  1008f2:	66 90                	xchg   %ax,%ax
  1008f4:	66 90                	xchg   %ax,%ax
  1008f6:	66 90                	xchg   %ax,%ax
  1008f8:	66 90                	xchg   %ax,%ax
  1008fa:	66 90                	xchg   %ax,%ax
  1008fc:	66 90                	xchg   %ax,%ax
  1008fe:	66 90                	xchg   %ax,%ax
  100900:	66 90                	xchg   %ax,%ax
  100902:	66 90                	xchg   %ax,%ax
  100904:	66 90                	xchg   %ax,%ax
  100906:	66 90                	xchg   %ax,%ax
  100908:	66 90                	xchg   %ax,%ax
  10090a:	66 90                	xchg   %ax,%ax
  10090c:	66 90                	xchg   %ax,%ax
  10090e:	66 90                	xchg   %ax,%ax
  100910:	66 90                	xchg   %ax,%ax
  100912:	66 90                	xchg   %ax,%ax
  100914:	66 90                	xchg   %ax,%ax
  100916:	66 90                	xchg   %ax,%ax
  100918:	66 90                	xchg   %ax,%ax
  10091a:	66 90                	xchg   %ax,%ax
  10091c:	66 90                	xchg   %ax,%ax
  10091e:	66 90                	xchg   %ax,%ax
  100920:	66 90                	xchg   %ax,%ax
  100922:	66 90                	xchg   %ax,%ax
  100924:	66 90                	xchg   %ax,%ax
  100926:	66 90                	xchg   %ax,%ax
  100928:	66 90                	xchg   %ax,%ax
  10092a:	66 90                	xchg   %ax,%ax
  10092c:	66 90                	xchg   %ax,%ax
  10092e:	66 90                	xchg   %ax,%ax
  100930:	66 90                	xchg   %ax,%ax
  100932:	66 90                	xchg   %ax,%ax
  100934:	66 90                	xchg   %ax,%ax
  100936:	66 90                	xchg   %ax,%ax
  100938:	66 90                	xchg   %ax,%ax
  10093a:	66 90                	xchg   %ax,%ax
  10093c:	66 90                	xchg   %ax,%ax
  10093e:	66 90                	xchg   %ax,%ax
  100940:	66 90                	xchg   %ax,%ax
  100942:	66 90                	xchg   %ax,%ax
  100944:	66 90                	xchg   %ax,%ax
  100946:	66 90                	xchg   %ax,%ax
  100948:	66 90                	xchg   %ax,%ax
  10094a:	66 90                	xchg   %ax,%ax
  10094c:	66 90                	xchg   %ax,%ax
  10094e:	66 90                	xchg   %ax,%ax
  100950:	66 90                	xchg   %ax,%ax
  100952:	66 90                	xchg   %ax,%ax
  100954:	66 90                	xchg   %ax,%ax
  100956:	66 90                	xchg   %ax,%ax
  100958:	66 90                	xchg   %ax,%ax
  10095a:	66 90                	xchg   %ax,%ax
  10095c:	66 90                	xchg   %ax,%ax
  10095e:	66 90                	xchg   %ax,%ax
  100960:	66 90                	xchg   %ax,%ax
  100962:	66 90                	xchg   %ax,%ax
  100964:	66 90                	xchg   %ax,%ax
  100966:	66 90                	xchg   %ax,%ax
  100968:	66 90                	xchg   %ax,%ax
  10096a:	66 90                	xchg   %ax,%ax
  10096c:	66 90                	xchg   %ax,%ax
  10096e:	66 90                	xchg   %ax,%ax
  100970:	66 90                	xchg   %ax,%ax
  100972:	66 90                	xchg   %ax,%ax
  100974:	66 90                	xchg   %ax,%ax
  100976:	66 90                	xchg   %ax,%ax
  100978:	66 90                	xchg   %ax,%ax
  10097a:	66 90                	xchg   %ax,%ax
  10097c:	66 90                	xchg   %ax,%ax
  10097e:	66 90                	xchg   %ax,%ax
  100980:	66 90                	xchg   %ax,%ax
  100982:	66 90                	xchg   %ax,%ax
  100984:	66 90                	xchg   %ax,%ax
  100986:	66 90                	xchg   %ax,%ax
  100988:	66 90                	xchg   %ax,%ax
  10098a:	66 90                	xchg   %ax,%ax
  10098c:	66 90                	xchg   %ax,%ax
  10098e:	66 90                	xchg   %ax,%ax
  100990:	66 90                	xchg   %ax,%ax
  100992:	66 90                	xchg   %ax,%ax
  100994:	66 90                	xchg   %ax,%ax
  100996:	66 90                	xchg   %ax,%ax
  100998:	66 90                	xchg   %ax,%ax
  10099a:	66 90                	xchg   %ax,%ax
  10099c:	66 90                	xchg   %ax,%ax
  10099e:	66 90                	xchg   %ax,%ax
  1009a0:	66 90                	xchg   %ax,%ax
  1009a2:	66 90                	xchg   %ax,%ax
  1009a4:	66 90                	xchg   %ax,%ax
  1009a6:	66 90                	xchg   %ax,%ax
  1009a8:	66 90                	xchg   %ax,%ax
  1009aa:	66 90                	xchg   %ax,%ax
  1009ac:	66 90                	xchg   %ax,%ax
  1009ae:	66 90                	xchg   %ax,%ax
  1009b0:	66 90                	xchg   %ax,%ax
  1009b2:	66 90                	xchg   %ax,%ax
  1009b4:	66 90                	xchg   %ax,%ax
  1009b6:	66 90                	xchg   %ax,%ax
  1009b8:	66 90                	xchg   %ax,%ax
  1009ba:	66 90                	xchg   %ax,%ax
  1009bc:	66 90                	xchg   %ax,%ax
  1009be:	66 90                	xchg   %ax,%ax
  1009c0:	66 90                	xchg   %ax,%ax
  1009c2:	66 90                	xchg   %ax,%ax
  1009c4:	66 90                	xchg   %ax,%ax
  1009c6:	66 90                	xchg   %ax,%ax
  1009c8:	66 90                	xchg   %ax,%ax
  1009ca:	66 90                	xchg   %ax,%ax
  1009cc:	66 90                	xchg   %ax,%ax
  1009ce:	66 90                	xchg   %ax,%ax
  1009d0:	66 90                	xchg   %ax,%ax
  1009d2:	66 90                	xchg   %ax,%ax
  1009d4:	66 90                	xchg   %ax,%ax
  1009d6:	66 90                	xchg   %ax,%ax
  1009d8:	66 90                	xchg   %ax,%ax
  1009da:	66 90                	xchg   %ax,%ax
  1009dc:	66 90                	xchg   %ax,%ax
  1009de:	66 90                	xchg   %ax,%ax
  1009e0:	66 90                	xchg   %ax,%ax
  1009e2:	66 90                	xchg   %ax,%ax
  1009e4:	66 90                	xchg   %ax,%ax
  1009e6:	66 90                	xchg   %ax,%ax
  1009e8:	66 90                	xchg   %ax,%ax
  1009ea:	66 90                	xchg   %ax,%ax
  1009ec:	66 90                	xchg   %ax,%ax
  1009ee:	66 90                	xchg   %ax,%ax
  1009f0:	66 90                	xchg   %ax,%ax
  1009f2:	66 90                	xchg   %ax,%ax
  1009f4:	66 90                	xchg   %ax,%ax
  1009f6:	66 90                	xchg   %ax,%ax
  1009f8:	66 90                	xchg   %ax,%ax
  1009fa:	66 90                	xchg   %ax,%ax
  1009fc:	66 90                	xchg   %ax,%ax
  1009fe:	66 90                	xchg   %ax,%ax
  100a00:	66 90                	xchg   %ax,%ax
  100a02:	66 90                	xchg   %ax,%ax
  100a04:	66 90                	xchg   %ax,%ax
  100a06:	66 90                	xchg   %ax,%ax
  100a08:	66 90                	xchg   %ax,%ax
  100a0a:	66 90                	xchg   %ax,%ax
  100a0c:	66 90                	xchg   %ax,%ax
  100a0e:	66 90                	xchg   %ax,%ax
  100a10:	66 90                	xchg   %ax,%ax
  100a12:	66 90                	xchg   %ax,%ax
  100a14:	66 90                	xchg   %ax,%ax
  100a16:	66 90                	xchg   %ax,%ax
  100a18:	66 90                	xchg   %ax,%ax
  100a1a:	66 90                	xchg   %ax,%ax
  100a1c:	66 90                	xchg   %ax,%ax
  100a1e:	66 90                	xchg   %ax,%ax
  100a20:	66 90                	xchg   %ax,%ax
  100a22:	66 90                	xchg   %ax,%ax
  100a24:	66 90                	xchg   %ax,%ax
  100a26:	66 90                	xchg   %ax,%ax
  100a28:	66 90                	xchg   %ax,%ax
  100a2a:	66 90                	xchg   %ax,%ax
  100a2c:	66 90                	xchg   %ax,%ax
  100a2e:	66 90                	xchg   %ax,%ax
  100a30:	66 90                	xchg   %ax,%ax
  100a32:	66 90                	xchg   %ax,%ax
  100a34:	66 90                	xchg   %ax,%ax
  100a36:	66 90                	xchg   %ax,%ax
  100a38:	66 90                	xchg   %ax,%ax
  100a3a:	66 90                	xchg   %ax,%ax
  100a3c:	66 90                	xchg   %ax,%ax
  100a3e:	66 90                	xchg   %ax,%ax
  100a40:	66 90                	xchg   %ax,%ax
  100a42:	66 90                	xchg   %ax,%ax
  100a44:	66 90                	xchg   %ax,%ax
  100a46:	66 90                	xchg   %ax,%ax
  100a48:	66 90                	xchg   %ax,%ax
  100a4a:	66 90                	xchg   %ax,%ax
  100a4c:	66 90                	xchg   %ax,%ax
  100a4e:	66 90                	xchg   %ax,%ax
  100a50:	66 90                	xchg   %ax,%ax
  100a52:	66 90                	xchg   %ax,%ax
  100a54:	66 90                	xchg   %ax,%ax
  100a56:	66 90                	xchg   %ax,%ax
  100a58:	66 90                	xchg   %ax,%ax
  100a5a:	66 90                	xchg   %ax,%ax
  100a5c:	66 90                	xchg   %ax,%ax
  100a5e:	66 90                	xchg   %ax,%ax
  100a60:	66 90                	xchg   %ax,%ax
  100a62:	66 90                	xchg   %ax,%ax
  100a64:	66 90                	xchg   %ax,%ax
  100a66:	66 90                	xchg   %ax,%ax
  100a68:	66 90                	xchg   %ax,%ax
  100a6a:	66 90                	xchg   %ax,%ax
  100a6c:	66 90                	xchg   %ax,%ax
  100a6e:	66 90                	xchg   %ax,%ax
  100a70:	66 90                	xchg   %ax,%ax
  100a72:	66 90                	xchg   %ax,%ax
  100a74:	66 90                	xchg   %ax,%ax
  100a76:	66 90                	xchg   %ax,%ax
  100a78:	66 90                	xchg   %ax,%ax
  100a7a:	66 90                	xchg   %ax,%ax
  100a7c:	66 90                	xchg   %ax,%ax
  100a7e:	66 90                	xchg   %ax,%ax
  100a80:	66 90                	xchg   %ax,%ax
  100a82:	66 90                	xchg   %ax,%ax
  100a84:	66 90                	xchg   %ax,%ax
  100a86:	66 90                	xchg   %ax,%ax
  100a88:	66 90                	xchg   %ax,%ax
  100a8a:	66 90                	xchg   %ax,%ax
  100a8c:	66 90                	xchg   %ax,%ax
  100a8e:	66 90                	xchg   %ax,%ax
  100a90:	66 90                	xchg   %ax,%ax
  100a92:	66 90                	xchg   %ax,%ax
  100a94:	66 90                	xchg   %ax,%ax
  100a96:	66 90                	xchg   %ax,%ax
  100a98:	66 90                	xchg   %ax,%ax
  100a9a:	66 90                	xchg   %ax,%ax
  100a9c:	66 90                	xchg   %ax,%ax
  100a9e:	66 90                	xchg   %ax,%ax
  100aa0:	66 90                	xchg   %ax,%ax
  100aa2:	66 90                	xchg   %ax,%ax
  100aa4:	66 90                	xchg   %ax,%ax
  100aa6:	66 90                	xchg   %ax,%ax
  100aa8:	66 90                	xchg   %ax,%ax
  100aaa:	66 90                	xchg   %ax,%ax
  100aac:	66 90                	xchg   %ax,%ax
  100aae:	66 90                	xchg   %ax,%ax
  100ab0:	66 90                	xchg   %ax,%ax
  100ab2:	66 90                	xchg   %ax,%ax
  100ab4:	66 90                	xchg   %ax,%ax
  100ab6:	66 90                	xchg   %ax,%ax
  100ab8:	66 90                	xchg   %ax,%ax
  100aba:	66 90                	xchg   %ax,%ax
  100abc:	66 90                	xchg   %ax,%ax
  100abe:	66 90                	xchg   %ax,%ax
  100ac0:	66 90                	xchg   %ax,%ax
  100ac2:	66 90                	xchg   %ax,%ax
  100ac4:	66 90                	xchg   %ax,%ax
  100ac6:	66 90                	xchg   %ax,%ax
  100ac8:	66 90                	xchg   %ax,%ax
  100aca:	66 90                	xchg   %ax,%ax
  100acc:	66 90                	xchg   %ax,%ax
  100ace:	66 90                	xchg   %ax,%ax
  100ad0:	66 90                	xchg   %ax,%ax
  100ad2:	66 90                	xchg   %ax,%ax
  100ad4:	66 90                	xchg   %ax,%ax
  100ad6:	66 90                	xchg   %ax,%ax
  100ad8:	66 90                	xchg   %ax,%ax
  100ada:	66 90                	xchg   %ax,%ax
  100adc:	66 90                	xchg   %ax,%ax
  100ade:	66 90                	xchg   %ax,%ax
  100ae0:	66 90                	xchg   %ax,%ax
  100ae2:	66 90                	xchg   %ax,%ax
  100ae4:	66 90                	xchg   %ax,%ax
  100ae6:	66 90                	xchg   %ax,%ax
  100ae8:	66 90                	xchg   %ax,%ax
  100aea:	66 90                	xchg   %ax,%ax
  100aec:	66 90                	xchg   %ax,%ax
  100aee:	66 90                	xchg   %ax,%ax
  100af0:	66 90                	xchg   %ax,%ax
  100af2:	66 90                	xchg   %ax,%ax
  100af4:	66 90                	xchg   %ax,%ax
  100af6:	66 90                	xchg   %ax,%ax
  100af8:	66 90                	xchg   %ax,%ax
  100afa:	66 90                	xchg   %ax,%ax
  100afc:	66 90                	xchg   %ax,%ax
  100afe:	66 90                	xchg   %ax,%ax
  100b00:	66 90                	xchg   %ax,%ax
  100b02:	66 90                	xchg   %ax,%ax
  100b04:	66 90                	xchg   %ax,%ax
  100b06:	66 90                	xchg   %ax,%ax
  100b08:	66 90                	xchg   %ax,%ax
  100b0a:	66 90                	xchg   %ax,%ax
  100b0c:	66 90                	xchg   %ax,%ax
  100b0e:	66 90                	xchg   %ax,%ax
  100b10:	66 90                	xchg   %ax,%ax
  100b12:	66 90                	xchg   %ax,%ax
  100b14:	66 90                	xchg   %ax,%ax
  100b16:	66 90                	xchg   %ax,%ax
  100b18:	66 90                	xchg   %ax,%ax
  100b1a:	66 90                	xchg   %ax,%ax
  100b1c:	66 90                	xchg   %ax,%ax
  100b1e:	66 90                	xchg   %ax,%ax
  100b20:	66 90                	xchg   %ax,%ax
  100b22:	66 90                	xchg   %ax,%ax
  100b24:	66 90                	xchg   %ax,%ax
  100b26:	66 90                	xchg   %ax,%ax
  100b28:	66 90                	xchg   %ax,%ax
  100b2a:	66 90                	xchg   %ax,%ax
  100b2c:	66 90                	xchg   %ax,%ax
  100b2e:	66 90                	xchg   %ax,%ax
  100b30:	66 90                	xchg   %ax,%ax
  100b32:	66 90                	xchg   %ax,%ax
  100b34:	66 90                	xchg   %ax,%ax
  100b36:	66 90                	xchg   %ax,%ax
  100b38:	66 90                	xchg   %ax,%ax
  100b3a:	66 90                	xchg   %ax,%ax
  100b3c:	66 90                	xchg   %ax,%ax
  100b3e:	66 90                	xchg   %ax,%ax
  100b40:	66 90                	xchg   %ax,%ax
  100b42:	66 90                	xchg   %ax,%ax
  100b44:	66 90                	xchg   %ax,%ax
  100b46:	66 90                	xchg   %ax,%ax
  100b48:	66 90                	xchg   %ax,%ax
  100b4a:	66 90                	xchg   %ax,%ax
  100b4c:	66 90                	xchg   %ax,%ax
  100b4e:	66 90                	xchg   %ax,%ax
  100b50:	66 90                	xchg   %ax,%ax
  100b52:	66 90                	xchg   %ax,%ax
  100b54:	66 90                	xchg   %ax,%ax
  100b56:	66 90                	xchg   %ax,%ax
  100b58:	66 90                	xchg   %ax,%ax
  100b5a:	66 90                	xchg   %ax,%ax
  100b5c:	66 90                	xchg   %ax,%ax
  100b5e:	66 90                	xchg   %ax,%ax
  100b60:	66 90                	xchg   %ax,%ax
  100b62:	66 90                	xchg   %ax,%ax
  100b64:	66 90                	xchg   %ax,%ax
  100b66:	66 90                	xchg   %ax,%ax
  100b68:	66 90                	xchg   %ax,%ax
  100b6a:	66 90                	xchg   %ax,%ax
  100b6c:	66 90                	xchg   %ax,%ax
  100b6e:	66 90                	xchg   %ax,%ax
  100b70:	66 90                	xchg   %ax,%ax
  100b72:	66 90                	xchg   %ax,%ax
  100b74:	66 90                	xchg   %ax,%ax
  100b76:	66 90                	xchg   %ax,%ax
  100b78:	66 90                	xchg   %ax,%ax
  100b7a:	66 90                	xchg   %ax,%ax
  100b7c:	66 90                	xchg   %ax,%ax
  100b7e:	66 90                	xchg   %ax,%ax
  100b80:	66 90                	xchg   %ax,%ax
  100b82:	66 90                	xchg   %ax,%ax
  100b84:	66 90                	xchg   %ax,%ax
  100b86:	66 90                	xchg   %ax,%ax
  100b88:	66 90                	xchg   %ax,%ax
  100b8a:	66 90                	xchg   %ax,%ax
  100b8c:	66 90                	xchg   %ax,%ax
  100b8e:	66 90                	xchg   %ax,%ax
  100b90:	66 90                	xchg   %ax,%ax
  100b92:	66 90                	xchg   %ax,%ax
  100b94:	66 90                	xchg   %ax,%ax
  100b96:	66 90                	xchg   %ax,%ax
  100b98:	66 90                	xchg   %ax,%ax
  100b9a:	66 90                	xchg   %ax,%ax
  100b9c:	66 90                	xchg   %ax,%ax
  100b9e:	66 90                	xchg   %ax,%ax
  100ba0:	66 90                	xchg   %ax,%ax
  100ba2:	66 90                	xchg   %ax,%ax
  100ba4:	66 90                	xchg   %ax,%ax
  100ba6:	66 90                	xchg   %ax,%ax
  100ba8:	66 90                	xchg   %ax,%ax
  100baa:	66 90                	xchg   %ax,%ax
  100bac:	66 90                	xchg   %ax,%ax
  100bae:	66 90                	xchg   %ax,%ax
  100bb0:	66 90                	xchg   %ax,%ax
  100bb2:	66 90                	xchg   %ax,%ax
  100bb4:	66 90                	xchg   %ax,%ax
  100bb6:	66 90                	xchg   %ax,%ax
  100bb8:	66 90                	xchg   %ax,%ax
  100bba:	66 90                	xchg   %ax,%ax
  100bbc:	66 90                	xchg   %ax,%ax
  100bbe:	66 90                	xchg   %ax,%ax
  100bc0:	66 90                	xchg   %ax,%ax
  100bc2:	66 90                	xchg   %ax,%ax
  100bc4:	66 90                	xchg   %ax,%ax
  100bc6:	66 90                	xchg   %ax,%ax
  100bc8:	66 90                	xchg   %ax,%ax
  100bca:	66 90                	xchg   %ax,%ax
  100bcc:	66 90                	xchg   %ax,%ax
  100bce:	66 90                	xchg   %ax,%ax
  100bd0:	66 90                	xchg   %ax,%ax
  100bd2:	66 90                	xchg   %ax,%ax
  100bd4:	66 90                	xchg   %ax,%ax
  100bd6:	66 90                	xchg   %ax,%ax
  100bd8:	66 90                	xchg   %ax,%ax
  100bda:	66 90                	xchg   %ax,%ax
  100bdc:	66 90                	xchg   %ax,%ax
  100bde:	66 90                	xchg   %ax,%ax
  100be0:	66 90                	xchg   %ax,%ax
  100be2:	66 90                	xchg   %ax,%ax
  100be4:	66 90                	xchg   %ax,%ax
  100be6:	66 90                	xchg   %ax,%ax
  100be8:	66 90                	xchg   %ax,%ax
  100bea:	66 90                	xchg   %ax,%ax
  100bec:	66 90                	xchg   %ax,%ax
  100bee:	66 90                	xchg   %ax,%ax
  100bf0:	66 90                	xchg   %ax,%ax
  100bf2:	66 90                	xchg   %ax,%ax
  100bf4:	66 90                	xchg   %ax,%ax
  100bf6:	66 90                	xchg   %ax,%ax
  100bf8:	66 90                	xchg   %ax,%ax
  100bfa:	66 90                	xchg   %ax,%ax
  100bfc:	66 90                	xchg   %ax,%ax
  100bfe:	66 90                	xchg   %ax,%ax
  100c00:	66 90                	xchg   %ax,%ax
  100c02:	66 90                	xchg   %ax,%ax
  100c04:	66 90                	xchg   %ax,%ax
  100c06:	66 90                	xchg   %ax,%ax
  100c08:	66 90                	xchg   %ax,%ax
  100c0a:	66 90                	xchg   %ax,%ax
  100c0c:	66 90                	xchg   %ax,%ax
  100c0e:	66 90                	xchg   %ax,%ax
  100c10:	66 90                	xchg   %ax,%ax
  100c12:	66 90                	xchg   %ax,%ax
  100c14:	66 90                	xchg   %ax,%ax
  100c16:	66 90                	xchg   %ax,%ax
  100c18:	66 90                	xchg   %ax,%ax
  100c1a:	66 90                	xchg   %ax,%ax
  100c1c:	66 90                	xchg   %ax,%ax
  100c1e:	66 90                	xchg   %ax,%ax
  100c20:	66 90                	xchg   %ax,%ax
  100c22:	66 90                	xchg   %ax,%ax
  100c24:	66 90                	xchg   %ax,%ax
  100c26:	66 90                	xchg   %ax,%ax
  100c28:	66 90                	xchg   %ax,%ax
  100c2a:	66 90                	xchg   %ax,%ax
  100c2c:	66 90                	xchg   %ax,%ax
  100c2e:	66 90                	xchg   %ax,%ax
  100c30:	66 90                	xchg   %ax,%ax
  100c32:	66 90                	xchg   %ax,%ax
  100c34:	66 90                	xchg   %ax,%ax
  100c36:	66 90                	xchg   %ax,%ax
  100c38:	66 90                	xchg   %ax,%ax
  100c3a:	66 90                	xchg   %ax,%ax
  100c3c:	66 90                	xchg   %ax,%ax
  100c3e:	66 90                	xchg   %ax,%ax
  100c40:	66 90                	xchg   %ax,%ax
  100c42:	66 90                	xchg   %ax,%ax
  100c44:	66 90                	xchg   %ax,%ax
  100c46:	66 90                	xchg   %ax,%ax
  100c48:	66 90                	xchg   %ax,%ax
  100c4a:	66 90                	xchg   %ax,%ax
  100c4c:	66 90                	xchg   %ax,%ax
  100c4e:	66 90                	xchg   %ax,%ax
  100c50:	66 90                	xchg   %ax,%ax
  100c52:	66 90                	xchg   %ax,%ax
  100c54:	66 90                	xchg   %ax,%ax
  100c56:	66 90                	xchg   %ax,%ax
  100c58:	66 90                	xchg   %ax,%ax
  100c5a:	66 90                	xchg   %ax,%ax
  100c5c:	66 90                	xchg   %ax,%ax
  100c5e:	66 90                	xchg   %ax,%ax
  100c60:	66 90                	xchg   %ax,%ax
  100c62:	66 90                	xchg   %ax,%ax
  100c64:	66 90                	xchg   %ax,%ax
  100c66:	66 90                	xchg   %ax,%ax
  100c68:	66 90                	xchg   %ax,%ax
  100c6a:	66 90                	xchg   %ax,%ax
  100c6c:	66 90                	xchg   %ax,%ax
  100c6e:	66 90                	xchg   %ax,%ax
  100c70:	66 90                	xchg   %ax,%ax
  100c72:	66 90                	xchg   %ax,%ax
  100c74:	66 90                	xchg   %ax,%ax
  100c76:	66 90                	xchg   %ax,%ax
  100c78:	66 90                	xchg   %ax,%ax
  100c7a:	66 90                	xchg   %ax,%ax
  100c7c:	66 90                	xchg   %ax,%ax
  100c7e:	66 90                	xchg   %ax,%ax
  100c80:	66 90                	xchg   %ax,%ax
  100c82:	66 90                	xchg   %ax,%ax
  100c84:	66 90                	xchg   %ax,%ax
  100c86:	66 90                	xchg   %ax,%ax
  100c88:	66 90                	xchg   %ax,%ax
  100c8a:	66 90                	xchg   %ax,%ax
  100c8c:	66 90                	xchg   %ax,%ax
  100c8e:	66 90                	xchg   %ax,%ax
  100c90:	66 90                	xchg   %ax,%ax
  100c92:	66 90                	xchg   %ax,%ax
  100c94:	66 90                	xchg   %ax,%ax
  100c96:	66 90                	xchg   %ax,%ax
  100c98:	66 90                	xchg   %ax,%ax
  100c9a:	66 90                	xchg   %ax,%ax
  100c9c:	66 90                	xchg   %ax,%ax
  100c9e:	66 90                	xchg   %ax,%ax
  100ca0:	66 90                	xchg   %ax,%ax
  100ca2:	66 90                	xchg   %ax,%ax
  100ca4:	66 90                	xchg   %ax,%ax
  100ca6:	66 90                	xchg   %ax,%ax
  100ca8:	66 90                	xchg   %ax,%ax
  100caa:	66 90                	xchg   %ax,%ax
  100cac:	66 90                	xchg   %ax,%ax
  100cae:	66 90                	xchg   %ax,%ax
  100cb0:	66 90                	xchg   %ax,%ax
  100cb2:	66 90                	xchg   %ax,%ax
  100cb4:	66 90                	xchg   %ax,%ax
  100cb6:	66 90                	xchg   %ax,%ax
  100cb8:	66 90                	xchg   %ax,%ax
  100cba:	66 90                	xchg   %ax,%ax
  100cbc:	66 90                	xchg   %ax,%ax
  100cbe:	66 90                	xchg   %ax,%ax
  100cc0:	66 90                	xchg   %ax,%ax
  100cc2:	66 90                	xchg   %ax,%ax
  100cc4:	66 90                	xchg   %ax,%ax
  100cc6:	66 90                	xchg   %ax,%ax
  100cc8:	66 90                	xchg   %ax,%ax
  100cca:	66 90                	xchg   %ax,%ax
  100ccc:	66 90                	xchg   %ax,%ax
  100cce:	66 90                	xchg   %ax,%ax
  100cd0:	66 90                	xchg   %ax,%ax
  100cd2:	66 90                	xchg   %ax,%ax
  100cd4:	66 90                	xchg   %ax,%ax
  100cd6:	66 90                	xchg   %ax,%ax
  100cd8:	66 90                	xchg   %ax,%ax
  100cda:	66 90                	xchg   %ax,%ax
  100cdc:	66 90                	xchg   %ax,%ax
  100cde:	66 90                	xchg   %ax,%ax
  100ce0:	66 90                	xchg   %ax,%ax
  100ce2:	66 90                	xchg   %ax,%ax
  100ce4:	66 90                	xchg   %ax,%ax
  100ce6:	66 90                	xchg   %ax,%ax
  100ce8:	66 90                	xchg   %ax,%ax
  100cea:	66 90                	xchg   %ax,%ax
  100cec:	66 90                	xchg   %ax,%ax
  100cee:	66 90                	xchg   %ax,%ax
  100cf0:	66 90                	xchg   %ax,%ax
  100cf2:	66 90                	xchg   %ax,%ax
  100cf4:	66 90                	xchg   %ax,%ax
  100cf6:	66 90                	xchg   %ax,%ax
  100cf8:	66 90                	xchg   %ax,%ax
  100cfa:	66 90                	xchg   %ax,%ax
  100cfc:	66 90                	xchg   %ax,%ax
  100cfe:	66 90                	xchg   %ax,%ax
  100d00:	66 90                	xchg   %ax,%ax
  100d02:	66 90                	xchg   %ax,%ax
  100d04:	66 90                	xchg   %ax,%ax
  100d06:	66 90                	xchg   %ax,%ax
  100d08:	66 90                	xchg   %ax,%ax
  100d0a:	66 90                	xchg   %ax,%ax
  100d0c:	66 90                	xchg   %ax,%ax
  100d0e:	66 90                	xchg   %ax,%ax
  100d10:	66 90                	xchg   %ax,%ax
  100d12:	66 90                	xchg   %ax,%ax
  100d14:	66 90                	xchg   %ax,%ax
  100d16:	66 90                	xchg   %ax,%ax
  100d18:	66 90                	xchg   %ax,%ax
  100d1a:	66 90                	xchg   %ax,%ax
  100d1c:	66 90                	xchg   %ax,%ax
  100d1e:	66 90                	xchg   %ax,%ax
  100d20:	66 90                	xchg   %ax,%ax
  100d22:	66 90                	xchg   %ax,%ax
  100d24:	66 90                	xchg   %ax,%ax
  100d26:	66 90                	xchg   %ax,%ax
  100d28:	66 90                	xchg   %ax,%ax
  100d2a:	66 90                	xchg   %ax,%ax
  100d2c:	66 90                	xchg   %ax,%ax
  100d2e:	66 90                	xchg   %ax,%ax
  100d30:	66 90                	xchg   %ax,%ax
  100d32:	66 90                	xchg   %ax,%ax
  100d34:	66 90                	xchg   %ax,%ax
  100d36:	66 90                	xchg   %ax,%ax
  100d38:	66 90                	xchg   %ax,%ax
  100d3a:	66 90                	xchg   %ax,%ax
  100d3c:	66 90                	xchg   %ax,%ax
  100d3e:	66 90                	xchg   %ax,%ax
  100d40:	66 90                	xchg   %ax,%ax
  100d42:	66 90                	xchg   %ax,%ax
  100d44:	66 90                	xchg   %ax,%ax
  100d46:	66 90                	xchg   %ax,%ax
  100d48:	66 90                	xchg   %ax,%ax
  100d4a:	66 90                	xchg   %ax,%ax
  100d4c:	66 90                	xchg   %ax,%ax
  100d4e:	66 90                	xchg   %ax,%ax
  100d50:	66 90                	xchg   %ax,%ax
  100d52:	66 90                	xchg   %ax,%ax
  100d54:	66 90                	xchg   %ax,%ax
  100d56:	66 90                	xchg   %ax,%ax
  100d58:	66 90                	xchg   %ax,%ax
  100d5a:	66 90                	xchg   %ax,%ax
  100d5c:	66 90                	xchg   %ax,%ax
  100d5e:	66 90                	xchg   %ax,%ax
  100d60:	66 90                	xchg   %ax,%ax
  100d62:	66 90                	xchg   %ax,%ax
  100d64:	66 90                	xchg   %ax,%ax
  100d66:	66 90                	xchg   %ax,%ax
  100d68:	66 90                	xchg   %ax,%ax
  100d6a:	66 90                	xchg   %ax,%ax
  100d6c:	66 90                	xchg   %ax,%ax
  100d6e:	66 90                	xchg   %ax,%ax
  100d70:	66 90                	xchg   %ax,%ax
  100d72:	66 90                	xchg   %ax,%ax
  100d74:	66 90                	xchg   %ax,%ax
  100d76:	66 90                	xchg   %ax,%ax
  100d78:	66 90                	xchg   %ax,%ax
  100d7a:	66 90                	xchg   %ax,%ax
  100d7c:	66 90                	xchg   %ax,%ax
  100d7e:	66 90                	xchg   %ax,%ax
  100d80:	66 90                	xchg   %ax,%ax
  100d82:	66 90                	xchg   %ax,%ax
  100d84:	66 90                	xchg   %ax,%ax
  100d86:	66 90                	xchg   %ax,%ax
  100d88:	66 90                	xchg   %ax,%ax
  100d8a:	66 90                	xchg   %ax,%ax
  100d8c:	66 90                	xchg   %ax,%ax
  100d8e:	66 90                	xchg   %ax,%ax
  100d90:	66 90                	xchg   %ax,%ax
  100d92:	66 90                	xchg   %ax,%ax
  100d94:	66 90                	xchg   %ax,%ax
  100d96:	66 90                	xchg   %ax,%ax
  100d98:	66 90                	xchg   %ax,%ax
  100d9a:	66 90                	xchg   %ax,%ax
  100d9c:	66 90                	xchg   %ax,%ax
  100d9e:	66 90                	xchg   %ax,%ax
  100da0:	66 90                	xchg   %ax,%ax
  100da2:	66 90                	xchg   %ax,%ax
  100da4:	66 90                	xchg   %ax,%ax
  100da6:	66 90                	xchg   %ax,%ax
  100da8:	66 90                	xchg   %ax,%ax
  100daa:	66 90                	xchg   %ax,%ax
  100dac:	66 90                	xchg   %ax,%ax
  100dae:	66 90                	xchg   %ax,%ax
  100db0:	66 90                	xchg   %ax,%ax
  100db2:	66 90                	xchg   %ax,%ax
  100db4:	66 90                	xchg   %ax,%ax
  100db6:	66 90                	xchg   %ax,%ax
  100db8:	66 90                	xchg   %ax,%ax
  100dba:	66 90                	xchg   %ax,%ax
  100dbc:	66 90                	xchg   %ax,%ax
  100dbe:	66 90                	xchg   %ax,%ax
  100dc0:	66 90                	xchg   %ax,%ax
  100dc2:	66 90                	xchg   %ax,%ax
  100dc4:	66 90                	xchg   %ax,%ax
  100dc6:	66 90                	xchg   %ax,%ax
  100dc8:	66 90                	xchg   %ax,%ax
  100dca:	66 90                	xchg   %ax,%ax
  100dcc:	66 90                	xchg   %ax,%ax
  100dce:	66 90                	xchg   %ax,%ax
  100dd0:	66 90                	xchg   %ax,%ax
  100dd2:	66 90                	xchg   %ax,%ax
  100dd4:	66 90                	xchg   %ax,%ax
  100dd6:	66 90                	xchg   %ax,%ax
  100dd8:	66 90                	xchg   %ax,%ax
  100dda:	66 90                	xchg   %ax,%ax
  100ddc:	66 90                	xchg   %ax,%ax
  100dde:	66 90                	xchg   %ax,%ax
  100de0:	66 90                	xchg   %ax,%ax
  100de2:	66 90                	xchg   %ax,%ax
  100de4:	66 90                	xchg   %ax,%ax
  100de6:	66 90                	xchg   %ax,%ax
  100de8:	66 90                	xchg   %ax,%ax
  100dea:	66 90                	xchg   %ax,%ax
  100dec:	66 90                	xchg   %ax,%ax
  100dee:	66 90                	xchg   %ax,%ax
  100df0:	66 90                	xchg   %ax,%ax
  100df2:	66 90                	xchg   %ax,%ax
  100df4:	66 90                	xchg   %ax,%ax
  100df6:	66 90                	xchg   %ax,%ax
  100df8:	66 90                	xchg   %ax,%ax
  100dfa:	66 90                	xchg   %ax,%ax
  100dfc:	66 90                	xchg   %ax,%ax
  100dfe:	66 90                	xchg   %ax,%ax
  100e00:	66 90                	xchg   %ax,%ax
  100e02:	66 90                	xchg   %ax,%ax
  100e04:	66 90                	xchg   %ax,%ax
  100e06:	66 90                	xchg   %ax,%ax
  100e08:	66 90                	xchg   %ax,%ax
  100e0a:	66 90                	xchg   %ax,%ax
  100e0c:	66 90                	xchg   %ax,%ax
  100e0e:	66 90                	xchg   %ax,%ax
  100e10:	66 90                	xchg   %ax,%ax
  100e12:	66 90                	xchg   %ax,%ax
  100e14:	66 90                	xchg   %ax,%ax
  100e16:	66 90                	xchg   %ax,%ax
  100e18:	66 90                	xchg   %ax,%ax
  100e1a:	66 90                	xchg   %ax,%ax
  100e1c:	66 90                	xchg   %ax,%ax
  100e1e:	66 90                	xchg   %ax,%ax
  100e20:	66 90                	xchg   %ax,%ax
  100e22:	66 90                	xchg   %ax,%ax
  100e24:	66 90                	xchg   %ax,%ax
  100e26:	66 90                	xchg   %ax,%ax
  100e28:	66 90                	xchg   %ax,%ax
  100e2a:	66 90                	xchg   %ax,%ax
  100e2c:	66 90                	xchg   %ax,%ax
  100e2e:	66 90                	xchg   %ax,%ax
  100e30:	66 90                	xchg   %ax,%ax
  100e32:	66 90                	xchg   %ax,%ax
  100e34:	66 90                	xchg   %ax,%ax
  100e36:	66 90                	xchg   %ax,%ax
  100e38:	66 90                	xchg   %ax,%ax
  100e3a:	66 90                	xchg   %ax,%ax
  100e3c:	66 90                	xchg   %ax,%ax
  100e3e:	66 90                	xchg   %ax,%ax
  100e40:	66 90                	xchg   %ax,%ax
  100e42:	66 90                	xchg   %ax,%ax
  100e44:	66 90                	xchg   %ax,%ax
  100e46:	66 90                	xchg   %ax,%ax
  100e48:	66 90                	xchg   %ax,%ax
  100e4a:	66 90                	xchg   %ax,%ax
  100e4c:	66 90                	xchg   %ax,%ax
  100e4e:	66 90                	xchg   %ax,%ax
  100e50:	66 90                	xchg   %ax,%ax
  100e52:	66 90                	xchg   %ax,%ax
  100e54:	66 90                	xchg   %ax,%ax
  100e56:	66 90                	xchg   %ax,%ax
  100e58:	66 90                	xchg   %ax,%ax
  100e5a:	66 90                	xchg   %ax,%ax
  100e5c:	66 90                	xchg   %ax,%ax
  100e5e:	66 90                	xchg   %ax,%ax
  100e60:	66 90                	xchg   %ax,%ax
  100e62:	66 90                	xchg   %ax,%ax
  100e64:	66 90                	xchg   %ax,%ax
  100e66:	66 90                	xchg   %ax,%ax
  100e68:	66 90                	xchg   %ax,%ax
  100e6a:	66 90                	xchg   %ax,%ax
  100e6c:	66 90                	xchg   %ax,%ax
  100e6e:	66 90                	xchg   %ax,%ax
  100e70:	66 90                	xchg   %ax,%ax
  100e72:	66 90                	xchg   %ax,%ax
  100e74:	66 90                	xchg   %ax,%ax
  100e76:	66 90                	xchg   %ax,%ax
  100e78:	66 90                	xchg   %ax,%ax
  100e7a:	66 90                	xchg   %ax,%ax
  100e7c:	66 90                	xchg   %ax,%ax
  100e7e:	66 90                	xchg   %ax,%ax
  100e80:	66 90                	xchg   %ax,%ax
  100e82:	66 90                	xchg   %ax,%ax
  100e84:	66 90                	xchg   %ax,%ax
  100e86:	66 90                	xchg   %ax,%ax
  100e88:	66 90                	xchg   %ax,%ax
  100e8a:	66 90                	xchg   %ax,%ax
  100e8c:	66 90                	xchg   %ax,%ax
  100e8e:	66 90                	xchg   %ax,%ax
  100e90:	66 90                	xchg   %ax,%ax
  100e92:	66 90                	xchg   %ax,%ax
  100e94:	66 90                	xchg   %ax,%ax
  100e96:	66 90                	xchg   %ax,%ax
  100e98:	66 90                	xchg   %ax,%ax
  100e9a:	66 90                	xchg   %ax,%ax
  100e9c:	66 90                	xchg   %ax,%ax
  100e9e:	66 90                	xchg   %ax,%ax
  100ea0:	66 90                	xchg   %ax,%ax
  100ea2:	66 90                	xchg   %ax,%ax
  100ea4:	66 90                	xchg   %ax,%ax
  100ea6:	66 90                	xchg   %ax,%ax
  100ea8:	66 90                	xchg   %ax,%ax
  100eaa:	66 90                	xchg   %ax,%ax
  100eac:	66 90                	xchg   %ax,%ax
  100eae:	66 90                	xchg   %ax,%ax
  100eb0:	66 90                	xchg   %ax,%ax
  100eb2:	66 90                	xchg   %ax,%ax
  100eb4:	66 90                	xchg   %ax,%ax
  100eb6:	66 90                	xchg   %ax,%ax
  100eb8:	66 90                	xchg   %ax,%ax
  100eba:	66 90                	xchg   %ax,%ax
  100ebc:	66 90                	xchg   %ax,%ax
  100ebe:	66 90                	xchg   %ax,%ax
  100ec0:	66 90                	xchg   %ax,%ax
  100ec2:	66 90                	xchg   %ax,%ax
  100ec4:	66 90                	xchg   %ax,%ax
  100ec6:	66 90                	xchg   %ax,%ax
  100ec8:	66 90                	xchg   %ax,%ax
  100eca:	66 90                	xchg   %ax,%ax
  100ecc:	66 90                	xchg   %ax,%ax
  100ece:	66 90                	xchg   %ax,%ax
  100ed0:	66 90                	xchg   %ax,%ax
  100ed2:	66 90                	xchg   %ax,%ax
  100ed4:	66 90                	xchg   %ax,%ax
  100ed6:	66 90                	xchg   %ax,%ax
  100ed8:	66 90                	xchg   %ax,%ax
  100eda:	66 90                	xchg   %ax,%ax
  100edc:	66 90                	xchg   %ax,%ax
  100ede:	66 90                	xchg   %ax,%ax
  100ee0:	66 90                	xchg   %ax,%ax
  100ee2:	66 90                	xchg   %ax,%ax
  100ee4:	66 90                	xchg   %ax,%ax
  100ee6:	66 90                	xchg   %ax,%ax
  100ee8:	66 90                	xchg   %ax,%ax
  100eea:	66 90                	xchg   %ax,%ax
  100eec:	66 90                	xchg   %ax,%ax
  100eee:	66 90                	xchg   %ax,%ax
  100ef0:	66 90                	xchg   %ax,%ax
  100ef2:	66 90                	xchg   %ax,%ax
  100ef4:	66 90                	xchg   %ax,%ax
  100ef6:	66 90                	xchg   %ax,%ax
  100ef8:	66 90                	xchg   %ax,%ax
  100efa:	66 90                	xchg   %ax,%ax
  100efc:	66 90                	xchg   %ax,%ax
  100efe:	66 90                	xchg   %ax,%ax
  100f00:	66 90                	xchg   %ax,%ax
  100f02:	66 90                	xchg   %ax,%ax
  100f04:	66 90                	xchg   %ax,%ax
  100f06:	66 90                	xchg   %ax,%ax
  100f08:	66 90                	xchg   %ax,%ax
  100f0a:	66 90                	xchg   %ax,%ax
  100f0c:	66 90                	xchg   %ax,%ax
  100f0e:	66 90                	xchg   %ax,%ax
  100f10:	66 90                	xchg   %ax,%ax
  100f12:	66 90                	xchg   %ax,%ax
  100f14:	66 90                	xchg   %ax,%ax
  100f16:	66 90                	xchg   %ax,%ax
  100f18:	66 90                	xchg   %ax,%ax
  100f1a:	66 90                	xchg   %ax,%ax
  100f1c:	66 90                	xchg   %ax,%ax
  100f1e:	66 90                	xchg   %ax,%ax
  100f20:	66 90                	xchg   %ax,%ax
  100f22:	66 90                	xchg   %ax,%ax
  100f24:	66 90                	xchg   %ax,%ax
  100f26:	66 90                	xchg   %ax,%ax
  100f28:	66 90                	xchg   %ax,%ax
  100f2a:	66 90                	xchg   %ax,%ax
  100f2c:	66 90                	xchg   %ax,%ax
  100f2e:	66 90                	xchg   %ax,%ax
  100f30:	66 90                	xchg   %ax,%ax
  100f32:	66 90                	xchg   %ax,%ax
  100f34:	66 90                	xchg   %ax,%ax
  100f36:	66 90                	xchg   %ax,%ax
  100f38:	66 90                	xchg   %ax,%ax
  100f3a:	66 90                	xchg   %ax,%ax
  100f3c:	66 90                	xchg   %ax,%ax
  100f3e:	66 90                	xchg   %ax,%ax
  100f40:	66 90                	xchg   %ax,%ax
  100f42:	66 90                	xchg   %ax,%ax
  100f44:	66 90                	xchg   %ax,%ax
  100f46:	66 90                	xchg   %ax,%ax
  100f48:	66 90                	xchg   %ax,%ax
  100f4a:	66 90                	xchg   %ax,%ax
  100f4c:	66 90                	xchg   %ax,%ax
  100f4e:	66 90                	xchg   %ax,%ax
  100f50:	66 90                	xchg   %ax,%ax
  100f52:	66 90                	xchg   %ax,%ax
  100f54:	66 90                	xchg   %ax,%ax
  100f56:	66 90                	xchg   %ax,%ax
  100f58:	66 90                	xchg   %ax,%ax
  100f5a:	66 90                	xchg   %ax,%ax
  100f5c:	66 90                	xchg   %ax,%ax
  100f5e:	66 90                	xchg   %ax,%ax
  100f60:	66 90                	xchg   %ax,%ax
  100f62:	66 90                	xchg   %ax,%ax
  100f64:	66 90                	xchg   %ax,%ax
  100f66:	66 90                	xchg   %ax,%ax
  100f68:	66 90                	xchg   %ax,%ax
  100f6a:	66 90                	xchg   %ax,%ax
  100f6c:	66 90                	xchg   %ax,%ax
  100f6e:	66 90                	xchg   %ax,%ax
  100f70:	66 90                	xchg   %ax,%ax
  100f72:	66 90                	xchg   %ax,%ax
  100f74:	66 90                	xchg   %ax,%ax
  100f76:	66 90                	xchg   %ax,%ax
  100f78:	66 90                	xchg   %ax,%ax
  100f7a:	66 90                	xchg   %ax,%ax
  100f7c:	66 90                	xchg   %ax,%ax
  100f7e:	66 90                	xchg   %ax,%ax
  100f80:	66 90                	xchg   %ax,%ax
  100f82:	66 90                	xchg   %ax,%ax
  100f84:	66 90                	xchg   %ax,%ax
  100f86:	66 90                	xchg   %ax,%ax
  100f88:	66 90                	xchg   %ax,%ax
  100f8a:	66 90                	xchg   %ax,%ax
  100f8c:	66 90                	xchg   %ax,%ax
  100f8e:	66 90                	xchg   %ax,%ax
  100f90:	66 90                	xchg   %ax,%ax
  100f92:	66 90                	xchg   %ax,%ax
  100f94:	66 90                	xchg   %ax,%ax
  100f96:	66 90                	xchg   %ax,%ax
  100f98:	66 90                	xchg   %ax,%ax
  100f9a:	66 90                	xchg   %ax,%ax
  100f9c:	66 90                	xchg   %ax,%ax
  100f9e:	66 90                	xchg   %ax,%ax
  100fa0:	66 90                	xchg   %ax,%ax
  100fa2:	66 90                	xchg   %ax,%ax
  100fa4:	66 90                	xchg   %ax,%ax
  100fa6:	66 90                	xchg   %ax,%ax
  100fa8:	66 90                	xchg   %ax,%ax
  100faa:	66 90                	xchg   %ax,%ax
  100fac:	66 90                	xchg   %ax,%ax
  100fae:	66 90                	xchg   %ax,%ax
  100fb0:	66 90                	xchg   %ax,%ax
  100fb2:	66 90                	xchg   %ax,%ax
  100fb4:	66 90                	xchg   %ax,%ax
  100fb6:	66 90                	xchg   %ax,%ax
  100fb8:	66 90                	xchg   %ax,%ax
  100fba:	66 90                	xchg   %ax,%ax
  100fbc:	66 90                	xchg   %ax,%ax
  100fbe:	66 90                	xchg   %ax,%ax
  100fc0:	66 90                	xchg   %ax,%ax
  100fc2:	66 90                	xchg   %ax,%ax
  100fc4:	66 90                	xchg   %ax,%ax
  100fc6:	66 90                	xchg   %ax,%ax
  100fc8:	66 90                	xchg   %ax,%ax
  100fca:	66 90                	xchg   %ax,%ax
  100fcc:	66 90                	xchg   %ax,%ax
  100fce:	66 90                	xchg   %ax,%ax
  100fd0:	66 90                	xchg   %ax,%ax
  100fd2:	66 90                	xchg   %ax,%ax
  100fd4:	66 90                	xchg   %ax,%ax
  100fd6:	66 90                	xchg   %ax,%ax
  100fd8:	66 90                	xchg   %ax,%ax
  100fda:	66 90                	xchg   %ax,%ax
  100fdc:	66 90                	xchg   %ax,%ax
  100fde:	66 90                	xchg   %ax,%ax
  100fe0:	66 90                	xchg   %ax,%ax
  100fe2:	66 90                	xchg   %ax,%ax
  100fe4:	66 90                	xchg   %ax,%ax
  100fe6:	66 90                	xchg   %ax,%ax
  100fe8:	66 90                	xchg   %ax,%ax
  100fea:	66 90                	xchg   %ax,%ax
  100fec:	66 90                	xchg   %ax,%ax
  100fee:	66 90                	xchg   %ax,%ax
  100ff0:	66 90                	xchg   %ax,%ax
  100ff2:	66 90                	xchg   %ax,%ax
  100ff4:	66 90                	xchg   %ax,%ax
  100ff6:	66 90                	xchg   %ax,%ax
  100ff8:	66 90                	xchg   %ax,%ax
  100ffa:	66 90                	xchg   %ax,%ax
  100ffc:	66 90                	xchg   %ax,%ax
  100ffe:	66 90                	xchg   %ax,%ax

Disassembly of section .text:

c019a000 <start_kernel>:
c019a000:	55                   	push   %ebp
c019a001:	89 e5                	mov    %esp,%ebp
c019a003:	83 ec 08             	sub    $0x8,%esp
c019a006:	83 ec 0c             	sub    $0xc,%esp
c019a009:	68 00 c1 19 c0       	push   $0xc019c100
c019a00e:	e8 cf 12 00 00       	call   c019b2e2 <printk>
c019a013:	83 c4 10             	add    $0x10,%esp
c019a016:	83 ec 0c             	sub    $0xc,%esp
c019a019:	68 0f c1 19 c0       	push   $0xc019c10f
c019a01e:	e8 bf 12 00 00       	call   c019b2e2 <printk>
c019a023:	83 c4 10             	add    $0x10,%esp
c019a026:	90                   	nop
c019a027:	c9                   	leave  
c019a028:	c3                   	ret    

c019a029 <__toupper>:
c019a029:	55                   	push   %ebp
c019a02a:	89 e5                	mov    %esp,%ebp
c019a02c:	83 ec 04             	sub    $0x4,%esp
c019a02f:	8b 45 08             	mov    0x8(%ebp),%eax
c019a032:	88 45 fc             	mov    %al,-0x4(%ebp)
c019a035:	0f b6 45 fc          	movzbl -0x4(%ebp),%eax
c019a039:	0f b6 80 00 c0 19 c0 	movzbl -0x3fe64000(%eax),%eax
c019a040:	0f b6 c0             	movzbl %al,%eax
c019a043:	83 e0 02             	and    $0x2,%eax
c019a046:	85 c0                	test   %eax,%eax
c019a048:	74 04                	je     c019a04e <__toupper+0x25>
c019a04a:	80 6d fc 20          	subb   $0x20,-0x4(%ebp)
c019a04e:	0f b6 45 fc          	movzbl -0x4(%ebp),%eax
c019a052:	c9                   	leave  
c019a053:	c3                   	ret    

c019a054 <simple_strtoul>:
c019a054:	55                   	push   %ebp
c019a055:	89 e5                	mov    %esp,%ebp
c019a057:	83 ec 10             	sub    $0x10,%esp
c019a05a:	c7 45 fc 00 00 00 00 	movl   $0x0,-0x4(%ebp)
c019a061:	83 7d 10 00          	cmpl   $0x0,0x10(%ebp)
c019a065:	75 65                	jne    c019a0cc <simple_strtoul+0x78>
c019a067:	c7 45 10 0a 00 00 00 	movl   $0xa,0x10(%ebp)
c019a06e:	8b 45 08             	mov    0x8(%ebp),%eax
c019a071:	0f b6 00             	movzbl (%eax),%eax
c019a074:	3c 30                	cmp    $0x30,%al
c019a076:	75 54                	jne    c019a0cc <simple_strtoul+0x78>
c019a078:	c7 45 10 08 00 00 00 	movl   $0x8,0x10(%ebp)
c019a07f:	83 45 08 01          	addl   $0x1,0x8(%ebp)
c019a083:	8b 45 08             	mov    0x8(%ebp),%eax
c019a086:	0f b6 00             	movzbl (%eax),%eax
c019a089:	3c 78                	cmp    $0x78,%al
c019a08b:	75 3f                	jne    c019a0cc <simple_strtoul+0x78>
c019a08d:	8b 45 08             	mov    0x8(%ebp),%eax
c019a090:	83 c0 01             	add    $0x1,%eax
c019a093:	0f b6 00             	movzbl (%eax),%eax
c019a096:	0f b6 c0             	movzbl %al,%eax
c019a099:	0f b6 80 00 c0 19 c0 	movzbl -0x3fe64000(%eax),%eax
c019a0a0:	0f b6 c0             	movzbl %al,%eax
c019a0a3:	83 e0 44             	and    $0x44,%eax
c019a0a6:	85 c0                	test   %eax,%eax
c019a0a8:	74 22                	je     c019a0cc <simple_strtoul+0x78>
c019a0aa:	83 45 08 01          	addl   $0x1,0x8(%ebp)
c019a0ae:	c7 45 10 10 00 00 00 	movl   $0x10,0x10(%ebp)
c019a0b5:	eb 15                	jmp    c019a0cc <simple_strtoul+0x78>
c019a0b7:	8b 45 fc             	mov    -0x4(%ebp),%eax
c019a0ba:	0f af 45 10          	imul   0x10(%ebp),%eax
c019a0be:	89 c2                	mov    %eax,%edx
c019a0c0:	8b 45 f8             	mov    -0x8(%ebp),%eax
c019a0c3:	01 d0                	add    %edx,%eax
c019a0c5:	89 45 fc             	mov    %eax,-0x4(%ebp)
c019a0c8:	83 45 08 01          	addl   $0x1,0x8(%ebp)
c019a0cc:	8b 45 08             	mov    0x8(%ebp),%eax
c019a0cf:	0f b6 00             	movzbl (%eax),%eax
c019a0d2:	0f b6 c0             	movzbl %al,%eax
c019a0d5:	0f b6 80 00 c0 19 c0 	movzbl -0x3fe64000(%eax),%eax
c019a0dc:	0f b6 c0             	movzbl %al,%eax
c019a0df:	83 e0 44             	and    $0x44,%eax
c019a0e2:	85 c0                	test   %eax,%eax
c019a0e4:	74 4b                	je     c019a131 <simple_strtoul+0xdd>
c019a0e6:	8b 45 08             	mov    0x8(%ebp),%eax
c019a0e9:	0f b6 00             	movzbl (%eax),%eax
c019a0ec:	0f b6 c0             	movzbl %al,%eax
c019a0ef:	0f b6 80 00 c0 19 c0 	movzbl -0x3fe64000(%eax),%eax
c019a0f6:	0f b6 c0             	movzbl %al,%eax
c019a0f9:	83 e0 04             	and    $0x4,%eax
c019a0fc:	85 c0                	test   %eax,%eax
c019a0fe:	74 0e                	je     c019a10e <simple_strtoul+0xba>
c019a100:	8b 45 08             	mov    0x8(%ebp),%eax
c019a103:	0f b6 00             	movzbl (%eax),%eax
c019a106:	0f be c0             	movsbl %al,%eax
c019a109:	83 e8 30             	sub    $0x30,%eax
c019a10c:	eb 18                	jmp    c019a126 <simple_strtoul+0xd2>
c019a10e:	8b 45 08             	mov    0x8(%ebp),%eax
c019a111:	0f b6 00             	movzbl (%eax),%eax
c019a114:	0f b6 c0             	movzbl %al,%eax
c019a117:	50                   	push   %eax
c019a118:	e8 0c ff ff ff       	call   c019a029 <__toupper>
c019a11d:	83 c4 04             	add    $0x4,%esp
c019a120:	0f b6 c0             	movzbl %al,%eax
c019a123:	83 e8 37             	sub    $0x37,%eax
c019a126:	89 45 f8             	mov    %eax,-0x8(%ebp)
c019a129:	8b 45 f8             	mov    -0x8(%ebp),%eax
c019a12c:	3b 45 10             	cmp    0x10(%ebp),%eax
c019a12f:	72 86                	jb     c019a0b7 <simple_strtoul+0x63>
c019a131:	83 7d 0c 00          	cmpl   $0x0,0xc(%ebp)
c019a135:	74 08                	je     c019a13f <simple_strtoul+0xeb>
c019a137:	8b 45 0c             	mov    0xc(%ebp),%eax
c019a13a:	8b 55 08             	mov    0x8(%ebp),%edx
c019a13d:	89 10                	mov    %edx,(%eax)
c019a13f:	8b 45 fc             	mov    -0x4(%ebp),%eax
c019a142:	c9                   	leave  
c019a143:	c3                   	ret    

c019a144 <simple_strtol>:
c019a144:	55                   	push   %ebp
c019a145:	89 e5                	mov    %esp,%ebp
c019a147:	8b 45 08             	mov    0x8(%ebp),%eax
c019a14a:	0f b6 00             	movzbl (%eax),%eax
c019a14d:	3c 2d                	cmp    $0x2d,%al
c019a14f:	75 19                	jne    c019a16a <simple_strtol+0x26>
c019a151:	8b 45 08             	mov    0x8(%ebp),%eax
c019a154:	83 c0 01             	add    $0x1,%eax
c019a157:	ff 75 10             	push   0x10(%ebp)
c019a15a:	ff 75 0c             	push   0xc(%ebp)
c019a15d:	50                   	push   %eax
c019a15e:	e8 f1 fe ff ff       	call   c019a054 <simple_strtoul>
c019a163:	83 c4 0c             	add    $0xc,%esp
c019a166:	f7 d8                	neg    %eax
c019a168:	eb 11                	jmp    c019a17b <simple_strtol+0x37>
c019a16a:	ff 75 10             	push   0x10(%ebp)
c019a16d:	ff 75 0c             	push   0xc(%ebp)
c019a170:	ff 75 08             	push   0x8(%ebp)
c019a173:	e8 dc fe ff ff       	call   c019a054 <simple_strtoul>
c019a178:	83 c4 0c             	add    $0xc,%esp
c019a17b:	c9                   	leave  
c019a17c:	c3                   	ret    

c019a17d <simple_strtoull>:
c019a17d:	55                   	push   %ebp
c019a17e:	89 e5                	mov    %esp,%ebp
c019a180:	53                   	push   %ebx
c019a181:	83 ec 14             	sub    $0x14,%esp
c019a184:	c7 45 f0 00 00 00 00 	movl   $0x0,-0x10(%ebp)
c019a18b:	c7 45 f4 00 00 00 00 	movl   $0x0,-0xc(%ebp)
c019a192:	83 7d 10 00          	cmpl   $0x0,0x10(%ebp)
c019a196:	0f 85 83 00 00 00    	jne    c019a21f <simple_strtoull+0xa2>
c019a19c:	c7 45 10 0a 00 00 00 	movl   $0xa,0x10(%ebp)
c019a1a3:	8b 45 08             	mov    0x8(%ebp),%eax
c019a1a6:	0f b6 00             	movzbl (%eax),%eax
c019a1a9:	3c 30                	cmp    $0x30,%al
c019a1ab:	75 72                	jne    c019a21f <simple_strtoull+0xa2>
c019a1ad:	c7 45 10 08 00 00 00 	movl   $0x8,0x10(%ebp)
c019a1b4:	83 45 08 01          	addl   $0x1,0x8(%ebp)
c019a1b8:	8b 45 08             	mov    0x8(%ebp),%eax
c019a1bb:	0f b6 00             	movzbl (%eax),%eax
c019a1be:	3c 78                	cmp    $0x78,%al
c019a1c0:	75 5d                	jne    c019a21f <simple_strtoull+0xa2>
c019a1c2:	8b 45 08             	mov    0x8(%ebp),%eax
c019a1c5:	83 c0 01             	add    $0x1,%eax
c019a1c8:	0f b6 00             	movzbl (%eax),%eax
c019a1cb:	0f b6 c0             	movzbl %al,%eax
c019a1ce:	0f b6 80 00 c0 19 c0 	movzbl -0x3fe64000(%eax),%eax
c019a1d5:	0f b6 c0             	movzbl %al,%eax
c019a1d8:	83 e0 44             	and    $0x44,%eax
c019a1db:	85 c0                	test   %eax,%eax
c019a1dd:	74 40                	je     c019a21f <simple_strtoull+0xa2>
c019a1df:	83 45 08 01          	addl   $0x1,0x8(%ebp)
c019a1e3:	c7 45 10 10 00 00 00 	movl   $0x10,0x10(%ebp)
c019a1ea:	eb 33                	jmp    c019a21f <simple_strtoull+0xa2>
c019a1ec:	8b 45 10             	mov    0x10(%ebp),%eax
c019a1ef:	ba 00 00 00 00       	mov    $0x0,%edx
c019a1f4:	8b 4d f0             	mov    -0x10(%ebp),%ecx
c019a1f7:	89 cb                	mov    %ecx,%ebx
c019a1f9:	0f af da             	imul   %edx,%ebx
c019a1fc:	8b 4d f4             	mov    -0xc(%ebp),%ecx
c019a1ff:	0f af c8             	imul   %eax,%ecx
c019a202:	01 d9                	add    %ebx,%ecx
c019a204:	f7 65 f0             	mull   -0x10(%ebp)
c019a207:	01 d1                	add    %edx,%ecx
c019a209:	89 ca                	mov    %ecx,%edx
c019a20b:	8b 4d e8             	mov    -0x18(%ebp),%ecx
c019a20e:	8b 5d ec             	mov    -0x14(%ebp),%ebx
c019a211:	01 c8                	add    %ecx,%eax
c019a213:	11 da                	adc    %ebx,%edx
c019a215:	89 45 f0             	mov    %eax,-0x10(%ebp)
c019a218:	89 55 f4             	mov    %edx,-0xc(%ebp)
c019a21b:	83 45 08 01          	addl   $0x1,0x8(%ebp)
c019a21f:	8b 45 08             	mov    0x8(%ebp),%eax
c019a222:	0f b6 00             	movzbl (%eax),%eax
c019a225:	0f b6 c0             	movzbl %al,%eax
c019a228:	0f b6 80 00 c0 19 c0 	movzbl -0x3fe64000(%eax),%eax
c019a22f:	0f b6 c0             	movzbl %al,%eax
c019a232:	83 e0 44             	and    $0x44,%eax
c019a235:	85 c0                	test   %eax,%eax
c019a237:	0f 84 85 00 00 00    	je     c019a2c2 <simple_strtoull+0x145>
c019a23d:	8b 45 08             	mov    0x8(%ebp),%eax
c019a240:	0f b6 00             	movzbl (%eax),%eax
c019a243:	0f b6 c0             	movzbl %al,%eax
c019a246:	0f b6 80 00 c0 19 c0 	movzbl -0x3fe64000(%eax),%eax
c019a24d:	0f b6 c0             	movzbl %al,%eax
c019a250:	83 e0 04             	and    $0x4,%eax
c019a253:	85 c0                	test   %eax,%eax
c019a255:	74 0e                	je     c019a265 <simple_strtoull+0xe8>
c019a257:	8b 45 08             	mov    0x8(%ebp),%eax
c019a25a:	0f b6 00             	movzbl (%eax),%eax
c019a25d:	0f be c0             	movsbl %al,%eax
c019a260:	83 e8 30             	sub    $0x30,%eax
c019a263:	eb 40                	jmp    c019a2a5 <simple_strtoull+0x128>
c019a265:	8b 45 08             	mov    0x8(%ebp),%eax
c019a268:	0f b6 00             	movzbl (%eax),%eax
c019a26b:	0f b6 c0             	movzbl %al,%eax
c019a26e:	0f b6 80 00 c0 19 c0 	movzbl -0x3fe64000(%eax),%eax
c019a275:	0f b6 c0             	movzbl %al,%eax
c019a278:	83 e0 02             	and    $0x2,%eax
c019a27b:	85 c0                	test   %eax,%eax
c019a27d:	74 1a                	je     c019a299 <simple_strtoull+0x11c>
c019a27f:	8b 45 08             	mov    0x8(%ebp),%eax
c019a282:	0f b6 00             	movzbl (%eax),%eax
c019a285:	0f b6 c0             	movzbl %al,%eax
c019a288:	50                   	push   %eax
c019a289:	e8 9b fd ff ff       	call   c019a029 <__toupper>
c019a28e:	83 c4 04             	add    $0x4,%esp
c019a291:	0f b6 c0             	movzbl %al,%eax
c019a294:	83 e8 37             	sub    $0x37,%eax
c019a297:	eb 0c                	jmp    c019a2a5 <simple_strtoull+0x128>
c019a299:	8b 45 08             	mov    0x8(%ebp),%eax
c019a29c:	0f b6 00             	movzbl (%eax),%eax
c019a29f:	0f be c0             	movsbl %al,%eax
c019a2a2:	83 e8 37             	sub    $0x37,%eax
c019a2a5:	99                   	cltd   
c019a2a6:	89 45 e8             	mov    %eax,-0x18(%ebp)
c019a2a9:	89 55 ec             	mov    %edx,-0x14(%ebp)
c019a2ac:	8b 45 10             	mov    0x10(%ebp),%eax
c019a2af:	ba 00 00 00 00       	mov    $0x0,%edx
c019a2b4:	8b 4d ec             	mov    -0x14(%ebp),%ecx
c019a2b7:	39 45 e8             	cmp    %eax,-0x18(%ebp)
c019a2ba:	19 d1                	sbb    %edx,%ecx
c019a2bc:	0f 82 2a ff ff ff    	jb     c019a1ec <simple_strtoull+0x6f>
c019a2c2:	83 7d 0c 00          	cmpl   $0x0,0xc(%ebp)
c019a2c6:	74 08                	je     c019a2d0 <simple_strtoull+0x153>
c019a2c8:	8b 45 0c             	mov    0xc(%ebp),%eax
c019a2cb:	8b 55 08             	mov    0x8(%ebp),%edx
c019a2ce:	89 10                	mov    %edx,(%eax)
c019a2d0:	8b 45 f0             	mov    -0x10(%ebp),%eax
c019a2d3:	8b 55 f4             	mov    -0xc(%ebp),%edx
c019a2d6:	8b 5d fc             	mov    -0x4(%ebp),%ebx
c019a2d9:	c9                   	leave  
c019a2da:	c3                   	ret    

c019a2db <simple_strtoll>:
c019a2db:	55                   	push   %ebp
c019a2dc:	89 e5                	mov    %esp,%ebp
c019a2de:	8b 45 08             	mov    0x8(%ebp),%eax
c019a2e1:	0f b6 00             	movzbl (%eax),%eax
c019a2e4:	3c 2d                	cmp    $0x2d,%al
c019a2e6:	75 21                	jne    c019a309 <simple_strtoll+0x2e>
c019a2e8:	8b 45 08             	mov    0x8(%ebp),%eax
c019a2eb:	83 c0 01             	add    $0x1,%eax
c019a2ee:	83 ec 04             	sub    $0x4,%esp
c019a2f1:	ff 75 10             	push   0x10(%ebp)
c019a2f4:	ff 75 0c             	push   0xc(%ebp)
c019a2f7:	50                   	push   %eax
c019a2f8:	e8 80 fe ff ff       	call   c019a17d <simple_strtoull>
c019a2fd:	83 c4 10             	add    $0x10,%esp
c019a300:	f7 d8                	neg    %eax
c019a302:	83 d2 00             	adc    $0x0,%edx
c019a305:	f7 da                	neg    %edx
c019a307:	eb 14                	jmp    c019a31d <simple_strtoll+0x42>
c019a309:	83 ec 04             	sub    $0x4,%esp
c019a30c:	ff 75 10             	push   0x10(%ebp)
c019a30f:	ff 75 0c             	push   0xc(%ebp)
c019a312:	ff 75 08             	push   0x8(%ebp)
c019a315:	e8 63 fe ff ff       	call   c019a17d <simple_strtoull>
c019a31a:	83 c4 10             	add    $0x10,%esp
c019a31d:	c9                   	leave  
c019a31e:	c3                   	ret    

c019a31f <skip_atoi>:
c019a31f:	55                   	push   %ebp
c019a320:	89 e5                	mov    %esp,%ebp
c019a322:	53                   	push   %ebx
c019a323:	83 ec 10             	sub    $0x10,%esp
c019a326:	c7 45 f8 00 00 00 00 	movl   $0x0,-0x8(%ebp)
c019a32d:	eb 29                	jmp    c019a358 <skip_atoi+0x39>
c019a32f:	8b 55 f8             	mov    -0x8(%ebp),%edx
c019a332:	89 d0                	mov    %edx,%eax
c019a334:	c1 e0 02             	shl    $0x2,%eax
c019a337:	01 d0                	add    %edx,%eax
c019a339:	01 c0                	add    %eax,%eax
c019a33b:	89 c3                	mov    %eax,%ebx
c019a33d:	8b 45 08             	mov    0x8(%ebp),%eax
c019a340:	8b 00                	mov    (%eax),%eax
c019a342:	8d 48 01             	lea    0x1(%eax),%ecx
c019a345:	8b 55 08             	mov    0x8(%ebp),%edx
c019a348:	89 0a                	mov    %ecx,(%edx)
c019a34a:	0f b6 00             	movzbl (%eax),%eax
c019a34d:	0f be c0             	movsbl %al,%eax
c019a350:	01 d8                	add    %ebx,%eax
c019a352:	83 e8 30             	sub    $0x30,%eax
c019a355:	89 45 f8             	mov    %eax,-0x8(%ebp)
c019a358:	8b 45 08             	mov    0x8(%ebp),%eax
c019a35b:	8b 00                	mov    (%eax),%eax
c019a35d:	0f b6 00             	movzbl (%eax),%eax
c019a360:	0f b6 c0             	movzbl %al,%eax
c019a363:	0f b6 80 00 c0 19 c0 	movzbl -0x3fe64000(%eax),%eax
c019a36a:	0f b6 c0             	movzbl %al,%eax
c019a36d:	83 e0 04             	and    $0x4,%eax
c019a370:	85 c0                	test   %eax,%eax
c019a372:	75 bb                	jne    c019a32f <skip_atoi+0x10>
c019a374:	8b 45 f8             	mov    -0x8(%ebp),%eax
c019a377:	8b 5d fc             	mov    -0x4(%ebp),%ebx
c019a37a:	c9                   	leave  
c019a37b:	c3                   	ret    

c019a37c <number>:
c019a37c:	55                   	push   %ebp
c019a37d:	89 e5                	mov    %esp,%ebp
c019a37f:	56                   	push   %esi
c019a380:	53                   	push   %ebx
c019a381:	83 c4 80             	add    $0xffffff80,%esp
c019a384:	8b 75 10             	mov    0x10(%ebp),%esi
c019a387:	89 75 80             	mov    %esi,-0x80(%ebp)
c019a38a:	8b 75 14             	mov    0x14(%ebp),%esi
c019a38d:	89 75 84             	mov    %esi,-0x7c(%ebp)
c019a390:	8b 75 24             	mov    0x24(%ebp),%esi
c019a393:	83 e6 40             	and    $0x40,%esi
c019a396:	85 f6                	test   %esi,%esi
c019a398:	74 07                	je     c019a3a1 <number+0x25>
c019a39a:	be c0 c2 19 c0       	mov    $0xc019c2c0,%esi
c019a39f:	eb 05                	jmp    c019a3a6 <number+0x2a>
c019a3a1:	be 00 c3 19 c0       	mov    $0xc019c300,%esi
c019a3a6:	89 75 e4             	mov    %esi,-0x1c(%ebp)
c019a3a9:	8b 75 24             	mov    0x24(%ebp),%esi
c019a3ac:	83 e6 10             	and    $0x10,%esi
c019a3af:	85 f6                	test   %esi,%esi
c019a3b1:	74 04                	je     c019a3b7 <number+0x3b>
c019a3b3:	83 65 24 fe          	andl   $0xfffffffe,0x24(%ebp)
c019a3b7:	83 7d 18 01          	cmpl   $0x1,0x18(%ebp)
c019a3bb:	7e 06                	jle    c019a3c3 <number+0x47>
c019a3bd:	83 7d 18 24          	cmpl   $0x24,0x18(%ebp)
c019a3c1:	7e 0a                	jle    c019a3cd <number+0x51>
c019a3c3:	b8 00 00 00 00       	mov    $0x0,%eax
c019a3c8:	e9 a6 02 00 00       	jmp    c019a673 <number+0x2f7>
c019a3cd:	8b 75 24             	mov    0x24(%ebp),%esi
c019a3d0:	83 e6 01             	and    $0x1,%esi
c019a3d3:	85 f6                	test   %esi,%esi
c019a3d5:	74 07                	je     c019a3de <number+0x62>
c019a3d7:	b8 30 00 00 00       	mov    $0x30,%eax
c019a3dc:	eb 05                	jmp    c019a3e3 <number+0x67>
c019a3de:	b8 20 00 00 00       	mov    $0x20,%eax
c019a3e3:	88 45 e3             	mov    %al,-0x1d(%ebp)
c019a3e6:	c6 45 f7 00          	movb   $0x0,-0x9(%ebp)
c019a3ea:	8b 75 24             	mov    0x24(%ebp),%esi
c019a3ed:	83 e6 02             	and    $0x2,%esi
c019a3f0:	85 f6                	test   %esi,%esi
c019a3f2:	74 40                	je     c019a434 <number+0xb8>
c019a3f4:	83 7d 84 00          	cmpl   $0x0,-0x7c(%ebp)
c019a3f8:	79 14                	jns    c019a40e <number+0x92>
c019a3fa:	c6 45 f7 2d          	movb   $0x2d,-0x9(%ebp)
c019a3fe:	f7 5d 80             	negl   -0x80(%ebp)
c019a401:	83 55 84 00          	adcl   $0x0,-0x7c(%ebp)
c019a405:	f7 5d 84             	negl   -0x7c(%ebp)
c019a408:	83 6d 1c 01          	subl   $0x1,0x1c(%ebp)
c019a40c:	eb 26                	jmp    c019a434 <number+0xb8>
c019a40e:	8b 75 24             	mov    0x24(%ebp),%esi
c019a411:	83 e6 04             	and    $0x4,%esi
c019a414:	85 f6                	test   %esi,%esi
c019a416:	74 0a                	je     c019a422 <number+0xa6>
c019a418:	c6 45 f7 2b          	movb   $0x2b,-0x9(%ebp)
c019a41c:	83 6d 1c 01          	subl   $0x1,0x1c(%ebp)
c019a420:	eb 12                	jmp    c019a434 <number+0xb8>
c019a422:	8b 75 24             	mov    0x24(%ebp),%esi
c019a425:	83 e6 08             	and    $0x8,%esi
c019a428:	85 f6                	test   %esi,%esi
c019a42a:	74 08                	je     c019a434 <number+0xb8>
c019a42c:	c6 45 f7 20          	movb   $0x20,-0x9(%ebp)
c019a430:	83 6d 1c 01          	subl   $0x1,0x1c(%ebp)
c019a434:	8b 75 24             	mov    0x24(%ebp),%esi
c019a437:	83 e6 20             	and    $0x20,%esi
c019a43a:	85 f6                	test   %esi,%esi
c019a43c:	74 16                	je     c019a454 <number+0xd8>
c019a43e:	83 7d 18 10          	cmpl   $0x10,0x18(%ebp)
c019a442:	75 06                	jne    c019a44a <number+0xce>
c019a444:	83 6d 1c 02          	subl   $0x2,0x1c(%ebp)
c019a448:	eb 0a                	jmp    c019a454 <number+0xd8>
c019a44a:	83 7d 18 08          	cmpl   $0x8,0x18(%ebp)
c019a44e:	75 04                	jne    c019a454 <number+0xd8>
c019a450:	83 6d 1c 01          	subl   $0x1,0x1c(%ebp)
c019a454:	c7 45 f0 00 00 00 00 	movl   $0x0,-0x10(%ebp)
c019a45b:	8b 75 80             	mov    -0x80(%ebp),%esi
c019a45e:	83 f6 00             	xor    $0x0,%esi
c019a461:	89 b5 78 ff ff ff    	mov    %esi,-0x88(%ebp)
c019a467:	8b 75 84             	mov    -0x7c(%ebp),%esi
c019a46a:	83 f6 00             	xor    $0x0,%esi
c019a46d:	89 b5 7c ff ff ff    	mov    %esi,-0x84(%ebp)
c019a473:	8b 85 78 ff ff ff    	mov    -0x88(%ebp),%eax
c019a479:	8b 95 7c ff ff ff    	mov    -0x84(%ebp),%edx
c019a47f:	89 c6                	mov    %eax,%esi
c019a481:	09 d6                	or     %edx,%esi
c019a483:	89 f0                	mov    %esi,%eax
c019a485:	85 c0                	test   %eax,%eax
c019a487:	75 7f                	jne    c019a508 <number+0x18c>
c019a489:	8b 45 f0             	mov    -0x10(%ebp),%eax
c019a48c:	8d 50 01             	lea    0x1(%eax),%edx
c019a48f:	89 55 f0             	mov    %edx,-0x10(%ebp)
c019a492:	c6 44 05 96 30       	movb   $0x30,-0x6a(%ebp,%eax,1)
c019a497:	e9 88 00 00 00       	jmp    c019a524 <number+0x1a8>
c019a49c:	8b 45 80             	mov    -0x80(%ebp),%eax
c019a49f:	8b 55 84             	mov    -0x7c(%ebp),%edx
c019a4a2:	89 45 dc             	mov    %eax,-0x24(%ebp)
c019a4a5:	89 55 e8             	mov    %edx,-0x18(%ebp)
c019a4a8:	8b 45 e8             	mov    -0x18(%ebp),%eax
c019a4ab:	89 45 ec             	mov    %eax,-0x14(%ebp)
c019a4ae:	83 7d e8 00          	cmpl   $0x0,-0x18(%ebp)
c019a4b2:	74 20                	je     c019a4d4 <number+0x158>
c019a4b4:	8b 75 18             	mov    0x18(%ebp),%esi
c019a4b7:	8b 45 e8             	mov    -0x18(%ebp),%eax
c019a4ba:	ba 00 00 00 00       	mov    $0x0,%edx
c019a4bf:	f7 f6                	div    %esi
c019a4c1:	89 55 ec             	mov    %edx,-0x14(%ebp)
c019a4c4:	8b 75 18             	mov    0x18(%ebp),%esi
c019a4c7:	8b 45 e8             	mov    -0x18(%ebp),%eax
c019a4ca:	ba 00 00 00 00       	mov    $0x0,%edx
c019a4cf:	f7 f6                	div    %esi
c019a4d1:	89 45 e8             	mov    %eax,-0x18(%ebp)
c019a4d4:	8b 45 dc             	mov    -0x24(%ebp),%eax
c019a4d7:	8b 55 ec             	mov    -0x14(%ebp),%edx
c019a4da:	f7 75 18             	divl   0x18(%ebp)
c019a4dd:	89 45 dc             	mov    %eax,-0x24(%ebp)
c019a4e0:	89 55 d8             	mov    %edx,-0x28(%ebp)
c019a4e3:	8b 45 dc             	mov    -0x24(%ebp),%eax
c019a4e6:	8b 55 e8             	mov    -0x18(%ebp),%edx
c019a4e9:	89 45 80             	mov    %eax,-0x80(%ebp)
c019a4ec:	89 55 84             	mov    %edx,-0x7c(%ebp)
c019a4ef:	8b 55 d8             	mov    -0x28(%ebp),%edx
c019a4f2:	8b 45 e4             	mov    -0x1c(%ebp),%eax
c019a4f5:	8d 34 02             	lea    (%edx,%eax,1),%esi
c019a4f8:	8b 45 f0             	mov    -0x10(%ebp),%eax
c019a4fb:	8d 50 01             	lea    0x1(%eax),%edx
c019a4fe:	89 55 f0             	mov    %edx,-0x10(%ebp)
c019a501:	0f b6 16             	movzbl (%esi),%edx
c019a504:	88 54 05 96          	mov    %dl,-0x6a(%ebp,%eax,1)
c019a508:	8b 45 80             	mov    -0x80(%ebp),%eax
c019a50b:	80 f4 00             	xor    $0x0,%ah
c019a50e:	89 c1                	mov    %eax,%ecx
c019a510:	8b 45 84             	mov    -0x7c(%ebp),%eax
c019a513:	80 f4 00             	xor    $0x0,%ah
c019a516:	89 c3                	mov    %eax,%ebx
c019a518:	89 d8                	mov    %ebx,%eax
c019a51a:	09 c8                	or     %ecx,%eax
c019a51c:	85 c0                	test   %eax,%eax
c019a51e:	0f 85 78 ff ff ff    	jne    c019a49c <number+0x120>
c019a524:	8b 45 f0             	mov    -0x10(%ebp),%eax
c019a527:	3b 45 20             	cmp    0x20(%ebp),%eax
c019a52a:	7e 06                	jle    c019a532 <number+0x1b6>
c019a52c:	8b 45 f0             	mov    -0x10(%ebp),%eax
c019a52f:	89 45 20             	mov    %eax,0x20(%ebp)
c019a532:	8b 45 20             	mov    0x20(%ebp),%eax
c019a535:	29 45 1c             	sub    %eax,0x1c(%ebp)
c019a538:	8b 45 24             	mov    0x24(%ebp),%eax
c019a53b:	83 e0 11             	and    $0x11,%eax
c019a53e:	85 c0                	test   %eax,%eax
c019a540:	75 21                	jne    c019a563 <number+0x1e7>
c019a542:	eb 12                	jmp    c019a556 <number+0x1da>
c019a544:	8b 45 08             	mov    0x8(%ebp),%eax
c019a547:	3b 45 0c             	cmp    0xc(%ebp),%eax
c019a54a:	77 06                	ja     c019a552 <number+0x1d6>
c019a54c:	8b 45 08             	mov    0x8(%ebp),%eax
c019a54f:	c6 00 20             	movb   $0x20,(%eax)
c019a552:	83 45 08 01          	addl   $0x1,0x8(%ebp)
c019a556:	8b 45 1c             	mov    0x1c(%ebp),%eax
c019a559:	8d 50 ff             	lea    -0x1(%eax),%edx
c019a55c:	89 55 1c             	mov    %edx,0x1c(%ebp)
c019a55f:	85 c0                	test   %eax,%eax
c019a561:	7f e1                	jg     c019a544 <number+0x1c8>
c019a563:	80 7d f7 00          	cmpb   $0x0,-0x9(%ebp)
c019a567:	74 15                	je     c019a57e <number+0x202>
c019a569:	8b 45 08             	mov    0x8(%ebp),%eax
c019a56c:	3b 45 0c             	cmp    0xc(%ebp),%eax
c019a56f:	77 09                	ja     c019a57a <number+0x1fe>
c019a571:	8b 45 08             	mov    0x8(%ebp),%eax
c019a574:	0f b6 55 f7          	movzbl -0x9(%ebp),%edx
c019a578:	88 10                	mov    %dl,(%eax)
c019a57a:	83 45 08 01          	addl   $0x1,0x8(%ebp)
c019a57e:	8b 45 24             	mov    0x24(%ebp),%eax
c019a581:	83 e0 20             	and    $0x20,%eax
c019a584:	85 c0                	test   %eax,%eax
c019a586:	74 4c                	je     c019a5d4 <number+0x258>
c019a588:	83 7d 18 08          	cmpl   $0x8,0x18(%ebp)
c019a58c:	75 14                	jne    c019a5a2 <number+0x226>
c019a58e:	8b 45 08             	mov    0x8(%ebp),%eax
c019a591:	3b 45 0c             	cmp    0xc(%ebp),%eax
c019a594:	77 06                	ja     c019a59c <number+0x220>
c019a596:	8b 45 08             	mov    0x8(%ebp),%eax
c019a599:	c6 00 30             	movb   $0x30,(%eax)
c019a59c:	83 45 08 01          	addl   $0x1,0x8(%ebp)
c019a5a0:	eb 32                	jmp    c019a5d4 <number+0x258>
c019a5a2:	83 7d 18 10          	cmpl   $0x10,0x18(%ebp)
c019a5a6:	75 2c                	jne    c019a5d4 <number+0x258>
c019a5a8:	8b 45 08             	mov    0x8(%ebp),%eax
c019a5ab:	3b 45 0c             	cmp    0xc(%ebp),%eax
c019a5ae:	77 06                	ja     c019a5b6 <number+0x23a>
c019a5b0:	8b 45 08             	mov    0x8(%ebp),%eax
c019a5b3:	c6 00 30             	movb   $0x30,(%eax)
c019a5b6:	83 45 08 01          	addl   $0x1,0x8(%ebp)
c019a5ba:	8b 45 08             	mov    0x8(%ebp),%eax
c019a5bd:	3b 45 0c             	cmp    0xc(%ebp),%eax
c019a5c0:	77 0e                	ja     c019a5d0 <number+0x254>
c019a5c2:	8b 45 e4             	mov    -0x1c(%ebp),%eax
c019a5c5:	83 c0 21             	add    $0x21,%eax
c019a5c8:	0f b6 10             	movzbl (%eax),%edx
c019a5cb:	8b 45 08             	mov    0x8(%ebp),%eax
c019a5ce:	88 10                	mov    %dl,(%eax)
c019a5d0:	83 45 08 01          	addl   $0x1,0x8(%ebp)
c019a5d4:	8b 45 24             	mov    0x24(%ebp),%eax
c019a5d7:	83 e0 10             	and    $0x10,%eax
c019a5da:	85 c0                	test   %eax,%eax
c019a5dc:	75 38                	jne    c019a616 <number+0x29a>
c019a5de:	eb 15                	jmp    c019a5f5 <number+0x279>
c019a5e0:	8b 45 08             	mov    0x8(%ebp),%eax
c019a5e3:	3b 45 0c             	cmp    0xc(%ebp),%eax
c019a5e6:	77 09                	ja     c019a5f1 <number+0x275>
c019a5e8:	8b 45 08             	mov    0x8(%ebp),%eax
c019a5eb:	0f b6 55 e3          	movzbl -0x1d(%ebp),%edx
c019a5ef:	88 10                	mov    %dl,(%eax)
c019a5f1:	83 45 08 01          	addl   $0x1,0x8(%ebp)
c019a5f5:	8b 45 1c             	mov    0x1c(%ebp),%eax
c019a5f8:	8d 50 ff             	lea    -0x1(%eax),%edx
c019a5fb:	89 55 1c             	mov    %edx,0x1c(%ebp)
c019a5fe:	85 c0                	test   %eax,%eax
c019a600:	7f de                	jg     c019a5e0 <number+0x264>
c019a602:	eb 12                	jmp    c019a616 <number+0x29a>
c019a604:	8b 45 08             	mov    0x8(%ebp),%eax
c019a607:	3b 45 0c             	cmp    0xc(%ebp),%eax
c019a60a:	77 06                	ja     c019a612 <number+0x296>
c019a60c:	8b 45 08             	mov    0x8(%ebp),%eax
c019a60f:	c6 00 30             	movb   $0x30,(%eax)
c019a612:	83 45 08 01          	addl   $0x1,0x8(%ebp)
c019a616:	8b 45 20             	mov    0x20(%ebp),%eax
c019a619:	8d 50 ff             	lea    -0x1(%eax),%edx
c019a61c:	89 55 20             	mov    %edx,0x20(%ebp)
c019a61f:	39 45 f0             	cmp    %eax,-0x10(%ebp)
c019a622:	7c e0                	jl     c019a604 <number+0x288>
c019a624:	eb 1c                	jmp    c019a642 <number+0x2c6>
c019a626:	8b 45 08             	mov    0x8(%ebp),%eax
c019a629:	3b 45 0c             	cmp    0xc(%ebp),%eax
c019a62c:	77 10                	ja     c019a63e <number+0x2c2>
c019a62e:	8d 55 96             	lea    -0x6a(%ebp),%edx
c019a631:	8b 45 f0             	mov    -0x10(%ebp),%eax
c019a634:	01 d0                	add    %edx,%eax
c019a636:	0f b6 10             	movzbl (%eax),%edx
c019a639:	8b 45 08             	mov    0x8(%ebp),%eax
c019a63c:	88 10                	mov    %dl,(%eax)
c019a63e:	83 45 08 01          	addl   $0x1,0x8(%ebp)
c019a642:	8b 45 f0             	mov    -0x10(%ebp),%eax
c019a645:	8d 50 ff             	lea    -0x1(%eax),%edx
c019a648:	89 55 f0             	mov    %edx,-0x10(%ebp)
c019a64b:	85 c0                	test   %eax,%eax
c019a64d:	7f d7                	jg     c019a626 <number+0x2aa>
c019a64f:	eb 12                	jmp    c019a663 <number+0x2e7>
c019a651:	8b 45 08             	mov    0x8(%ebp),%eax
c019a654:	3b 45 0c             	cmp    0xc(%ebp),%eax
c019a657:	77 06                	ja     c019a65f <number+0x2e3>
c019a659:	8b 45 08             	mov    0x8(%ebp),%eax
c019a65c:	c6 00 20             	movb   $0x20,(%eax)
c019a65f:	83 45 08 01          	addl   $0x1,0x8(%ebp)
c019a663:	8b 45 1c             	mov    0x1c(%ebp),%eax
c019a666:	8d 50 ff             	lea    -0x1(%eax),%edx
c019a669:	89 55 1c             	mov    %edx,0x1c(%ebp)
c019a66c:	85 c0                	test   %eax,%eax
c019a66e:	7f e1                	jg     c019a651 <number+0x2d5>
c019a670:	8b 45 08             	mov    0x8(%ebp),%eax
c019a673:	83 ec 80             	sub    $0xffffff80,%esp
c019a676:	5b                   	pop    %ebx
c019a677:	5e                   	pop    %esi
c019a678:	5d                   	pop    %ebp
c019a679:	c3                   	ret    

c019a67a <vsnprintf>:
c019a67a:	55                   	push   %ebp
c019a67b:	89 e5                	mov    %esp,%ebp
c019a67d:	83 ec 48             	sub    $0x48,%esp
c019a680:	8b 45 08             	mov    0x8(%ebp),%eax
c019a683:	89 45 e4             	mov    %eax,-0x1c(%ebp)
c019a686:	8b 45 0c             	mov    0xc(%ebp),%eax
c019a689:	8d 50 ff             	lea    -0x1(%eax),%edx
c019a68c:	8b 45 08             	mov    0x8(%ebp),%eax
c019a68f:	01 d0                	add    %edx,%eax
c019a691:	89 45 e0             	mov    %eax,-0x20(%ebp)
c019a694:	8b 45 08             	mov    0x8(%ebp),%eax
c019a697:	83 e8 01             	sub    $0x1,%eax
c019a69a:	39 45 e0             	cmp    %eax,-0x20(%ebp)
c019a69d:	0f 83 27 05 00 00    	jae    c019abca <vsnprintf+0x550>
c019a6a3:	c7 45 e0 ff ff ff ff 	movl   $0xffffffff,-0x20(%ebp)
c019a6aa:	8b 45 e0             	mov    -0x20(%ebp),%eax
c019a6ad:	2b 45 08             	sub    0x8(%ebp),%eax
c019a6b0:	83 c0 01             	add    $0x1,%eax
c019a6b3:	89 45 0c             	mov    %eax,0xc(%ebp)
c019a6b6:	e9 0f 05 00 00       	jmp    c019abca <vsnprintf+0x550>
c019a6bb:	8b 45 10             	mov    0x10(%ebp),%eax
c019a6be:	0f b6 00             	movzbl (%eax),%eax
c019a6c1:	3c 25                	cmp    $0x25,%al
c019a6c3:	74 1c                	je     c019a6e1 <vsnprintf+0x67>
c019a6c5:	8b 45 e4             	mov    -0x1c(%ebp),%eax
c019a6c8:	3b 45 e0             	cmp    -0x20(%ebp),%eax
c019a6cb:	77 0b                	ja     c019a6d8 <vsnprintf+0x5e>
c019a6cd:	8b 45 10             	mov    0x10(%ebp),%eax
c019a6d0:	0f b6 10             	movzbl (%eax),%edx
c019a6d3:	8b 45 e4             	mov    -0x1c(%ebp),%eax
c019a6d6:	88 10                	mov    %dl,(%eax)
c019a6d8:	83 45 e4 01          	addl   $0x1,-0x1c(%ebp)
c019a6dc:	e9 e0 04 00 00       	jmp    c019abc1 <vsnprintf+0x547>
c019a6e1:	c7 45 d8 00 00 00 00 	movl   $0x0,-0x28(%ebp)
c019a6e8:	8b 45 10             	mov    0x10(%ebp),%eax
c019a6eb:	83 c0 01             	add    $0x1,%eax
c019a6ee:	89 45 10             	mov    %eax,0x10(%ebp)
c019a6f1:	8b 45 10             	mov    0x10(%ebp),%eax
c019a6f4:	0f b6 00             	movzbl (%eax),%eax
c019a6f7:	0f be c0             	movsbl %al,%eax
c019a6fa:	83 e8 20             	sub    $0x20,%eax
c019a6fd:	83 f8 10             	cmp    $0x10,%eax
c019a700:	77 27                	ja     c019a729 <vsnprintf+0xaf>
c019a702:	8b 04 85 28 c1 19 c0 	mov    -0x3fe63ed8(,%eax,4),%eax
c019a709:	ff e0                	jmp    *%eax
c019a70b:	83 4d d8 10          	orl    $0x10,-0x28(%ebp)
c019a70f:	eb d7                	jmp    c019a6e8 <vsnprintf+0x6e>
c019a711:	83 4d d8 04          	orl    $0x4,-0x28(%ebp)
c019a715:	eb d1                	jmp    c019a6e8 <vsnprintf+0x6e>
c019a717:	83 4d d8 08          	orl    $0x8,-0x28(%ebp)
c019a71b:	eb cb                	jmp    c019a6e8 <vsnprintf+0x6e>
c019a71d:	83 4d d8 20          	orl    $0x20,-0x28(%ebp)
c019a721:	eb c5                	jmp    c019a6e8 <vsnprintf+0x6e>
c019a723:	83 4d d8 01          	orl    $0x1,-0x28(%ebp)
c019a727:	eb bf                	jmp    c019a6e8 <vsnprintf+0x6e>
c019a729:	c7 45 d4 ff ff ff ff 	movl   $0xffffffff,-0x2c(%ebp)
c019a730:	8b 45 10             	mov    0x10(%ebp),%eax
c019a733:	0f b6 00             	movzbl (%eax),%eax
c019a736:	0f b6 c0             	movzbl %al,%eax
c019a739:	0f b6 80 00 c0 19 c0 	movzbl -0x3fe64000(%eax),%eax
c019a740:	0f b6 c0             	movzbl %al,%eax
c019a743:	83 e0 04             	and    $0x4,%eax
c019a746:	85 c0                	test   %eax,%eax
c019a748:	74 11                	je     c019a75b <vsnprintf+0xe1>
c019a74a:	8d 45 10             	lea    0x10(%ebp),%eax
c019a74d:	50                   	push   %eax
c019a74e:	e8 cc fb ff ff       	call   c019a31f <skip_atoi>
c019a753:	83 c4 04             	add    $0x4,%esp
c019a756:	89 45 d4             	mov    %eax,-0x2c(%ebp)
c019a759:	eb 2c                	jmp    c019a787 <vsnprintf+0x10d>
c019a75b:	8b 45 10             	mov    0x10(%ebp),%eax
c019a75e:	0f b6 00             	movzbl (%eax),%eax
c019a761:	3c 2a                	cmp    $0x2a,%al
c019a763:	75 22                	jne    c019a787 <vsnprintf+0x10d>
c019a765:	8b 45 10             	mov    0x10(%ebp),%eax
c019a768:	83 c0 01             	add    $0x1,%eax
c019a76b:	89 45 10             	mov    %eax,0x10(%ebp)
c019a76e:	83 45 14 04          	addl   $0x4,0x14(%ebp)
c019a772:	8b 45 14             	mov    0x14(%ebp),%eax
c019a775:	8b 00                	mov    (%eax),%eax
c019a777:	89 45 d4             	mov    %eax,-0x2c(%ebp)
c019a77a:	83 7d d4 00          	cmpl   $0x0,-0x2c(%ebp)
c019a77e:	79 07                	jns    c019a787 <vsnprintf+0x10d>
c019a780:	f7 5d d4             	negl   -0x2c(%ebp)
c019a783:	83 4d d8 10          	orl    $0x10,-0x28(%ebp)
c019a787:	c7 45 d0 ff ff ff ff 	movl   $0xffffffff,-0x30(%ebp)
c019a78e:	8b 45 10             	mov    0x10(%ebp),%eax
c019a791:	0f b6 00             	movzbl (%eax),%eax
c019a794:	3c 2e                	cmp    $0x2e,%al
c019a796:	75 60                	jne    c019a7f8 <vsnprintf+0x17e>
c019a798:	8b 45 10             	mov    0x10(%ebp),%eax
c019a79b:	83 c0 01             	add    $0x1,%eax
c019a79e:	89 45 10             	mov    %eax,0x10(%ebp)
c019a7a1:	8b 45 10             	mov    0x10(%ebp),%eax
c019a7a4:	0f b6 00             	movzbl (%eax),%eax
c019a7a7:	0f b6 c0             	movzbl %al,%eax
c019a7aa:	0f b6 80 00 c0 19 c0 	movzbl -0x3fe64000(%eax),%eax
c019a7b1:	0f b6 c0             	movzbl %al,%eax
c019a7b4:	83 e0 04             	and    $0x4,%eax
c019a7b7:	85 c0                	test   %eax,%eax
c019a7b9:	74 11                	je     c019a7cc <vsnprintf+0x152>
c019a7bb:	8d 45 10             	lea    0x10(%ebp),%eax
c019a7be:	50                   	push   %eax
c019a7bf:	e8 5b fb ff ff       	call   c019a31f <skip_atoi>
c019a7c4:	83 c4 04             	add    $0x4,%esp
c019a7c7:	89 45 d0             	mov    %eax,-0x30(%ebp)
c019a7ca:	eb 1f                	jmp    c019a7eb <vsnprintf+0x171>
c019a7cc:	8b 45 10             	mov    0x10(%ebp),%eax
c019a7cf:	0f b6 00             	movzbl (%eax),%eax
c019a7d2:	3c 2a                	cmp    $0x2a,%al
c019a7d4:	75 15                	jne    c019a7eb <vsnprintf+0x171>
c019a7d6:	8b 45 10             	mov    0x10(%ebp),%eax
c019a7d9:	83 c0 01             	add    $0x1,%eax
c019a7dc:	89 45 10             	mov    %eax,0x10(%ebp)
c019a7df:	83 45 14 04          	addl   $0x4,0x14(%ebp)
c019a7e3:	8b 45 14             	mov    0x14(%ebp),%eax
c019a7e6:	8b 00                	mov    (%eax),%eax
c019a7e8:	89 45 d0             	mov    %eax,-0x30(%ebp)
c019a7eb:	83 7d d0 00          	cmpl   $0x0,-0x30(%ebp)
c019a7ef:	79 07                	jns    c019a7f8 <vsnprintf+0x17e>
c019a7f1:	c7 45 d0 00 00 00 00 	movl   $0x0,-0x30(%ebp)
c019a7f8:	c7 45 cc ff ff ff ff 	movl   $0xffffffff,-0x34(%ebp)
c019a7ff:	8b 45 10             	mov    0x10(%ebp),%eax
c019a802:	0f b6 00             	movzbl (%eax),%eax
c019a805:	3c 68                	cmp    $0x68,%al
c019a807:	74 28                	je     c019a831 <vsnprintf+0x1b7>
c019a809:	8b 45 10             	mov    0x10(%ebp),%eax
c019a80c:	0f b6 00             	movzbl (%eax),%eax
c019a80f:	3c 6c                	cmp    $0x6c,%al
c019a811:	74 1e                	je     c019a831 <vsnprintf+0x1b7>
c019a813:	8b 45 10             	mov    0x10(%ebp),%eax
c019a816:	0f b6 00             	movzbl (%eax),%eax
c019a819:	3c 4c                	cmp    $0x4c,%al
c019a81b:	74 14                	je     c019a831 <vsnprintf+0x1b7>
c019a81d:	8b 45 10             	mov    0x10(%ebp),%eax
c019a820:	0f b6 00             	movzbl (%eax),%eax
c019a823:	3c 5a                	cmp    $0x5a,%al
c019a825:	74 0a                	je     c019a831 <vsnprintf+0x1b7>
c019a827:	8b 45 10             	mov    0x10(%ebp),%eax
c019a82a:	0f b6 00             	movzbl (%eax),%eax
c019a82d:	3c 7a                	cmp    $0x7a,%al
c019a82f:	75 35                	jne    c019a866 <vsnprintf+0x1ec>
c019a831:	8b 45 10             	mov    0x10(%ebp),%eax
c019a834:	0f b6 00             	movzbl (%eax),%eax
c019a837:	0f be c0             	movsbl %al,%eax
c019a83a:	89 45 cc             	mov    %eax,-0x34(%ebp)
c019a83d:	8b 45 10             	mov    0x10(%ebp),%eax
c019a840:	83 c0 01             	add    $0x1,%eax
c019a843:	89 45 10             	mov    %eax,0x10(%ebp)
c019a846:	83 7d cc 6c          	cmpl   $0x6c,-0x34(%ebp)
c019a84a:	75 1a                	jne    c019a866 <vsnprintf+0x1ec>
c019a84c:	8b 45 10             	mov    0x10(%ebp),%eax
c019a84f:	0f b6 00             	movzbl (%eax),%eax
c019a852:	3c 6c                	cmp    $0x6c,%al
c019a854:	75 10                	jne    c019a866 <vsnprintf+0x1ec>
c019a856:	c7 45 cc 4c 00 00 00 	movl   $0x4c,-0x34(%ebp)
c019a85d:	8b 45 10             	mov    0x10(%ebp),%eax
c019a860:	83 c0 01             	add    $0x1,%eax
c019a863:	89 45 10             	mov    %eax,0x10(%ebp)
c019a866:	c7 45 e8 0a 00 00 00 	movl   $0xa,-0x18(%ebp)
c019a86d:	8b 45 10             	mov    0x10(%ebp),%eax
c019a870:	0f b6 00             	movzbl (%eax),%eax
c019a873:	0f be c0             	movsbl %al,%eax
c019a876:	83 e8 25             	sub    $0x25,%eax
c019a879:	83 f8 53             	cmp    $0x53,%eax
c019a87c:	0f 87 08 02 00 00    	ja     c019aa8a <vsnprintf+0x410>
c019a882:	8b 04 85 6c c1 19 c0 	mov    -0x3fe63e94(,%eax,4),%eax
c019a889:	ff e0                	jmp    *%eax
c019a88b:	8b 45 d8             	mov    -0x28(%ebp),%eax
c019a88e:	83 e0 10             	and    $0x10,%eax
c019a891:	85 c0                	test   %eax,%eax
c019a893:	75 1e                	jne    c019a8b3 <vsnprintf+0x239>
c019a895:	eb 12                	jmp    c019a8a9 <vsnprintf+0x22f>
c019a897:	8b 45 e4             	mov    -0x1c(%ebp),%eax
c019a89a:	3b 45 e0             	cmp    -0x20(%ebp),%eax
c019a89d:	77 06                	ja     c019a8a5 <vsnprintf+0x22b>
c019a89f:	8b 45 e4             	mov    -0x1c(%ebp),%eax
c019a8a2:	c6 00 20             	movb   $0x20,(%eax)
c019a8a5:	83 45 e4 01          	addl   $0x1,-0x1c(%ebp)
c019a8a9:	83 6d d4 01          	subl   $0x1,-0x2c(%ebp)
c019a8ad:	83 7d d4 00          	cmpl   $0x0,-0x2c(%ebp)
c019a8b1:	7f e4                	jg     c019a897 <vsnprintf+0x21d>
c019a8b3:	83 45 14 04          	addl   $0x4,0x14(%ebp)
c019a8b7:	8b 45 14             	mov    0x14(%ebp),%eax
c019a8ba:	8b 00                	mov    (%eax),%eax
c019a8bc:	88 45 bb             	mov    %al,-0x45(%ebp)
c019a8bf:	8b 45 e4             	mov    -0x1c(%ebp),%eax
c019a8c2:	3b 45 e0             	cmp    -0x20(%ebp),%eax
c019a8c5:	77 09                	ja     c019a8d0 <vsnprintf+0x256>
c019a8c7:	8b 45 e4             	mov    -0x1c(%ebp),%eax
c019a8ca:	0f b6 55 bb          	movzbl -0x45(%ebp),%edx
c019a8ce:	88 10                	mov    %dl,(%eax)
c019a8d0:	83 45 e4 01          	addl   $0x1,-0x1c(%ebp)
c019a8d4:	eb 12                	jmp    c019a8e8 <vsnprintf+0x26e>
c019a8d6:	8b 45 e4             	mov    -0x1c(%ebp),%eax
c019a8d9:	3b 45 e0             	cmp    -0x20(%ebp),%eax
c019a8dc:	77 06                	ja     c019a8e4 <vsnprintf+0x26a>
c019a8de:	8b 45 e4             	mov    -0x1c(%ebp),%eax
c019a8e1:	c6 00 20             	movb   $0x20,(%eax)
c019a8e4:	83 45 e4 01          	addl   $0x1,-0x1c(%ebp)
c019a8e8:	83 6d d4 01          	subl   $0x1,-0x2c(%ebp)
c019a8ec:	83 7d d4 00          	cmpl   $0x0,-0x2c(%ebp)
c019a8f0:	7f e4                	jg     c019a8d6 <vsnprintf+0x25c>
c019a8f2:	e9 ca 02 00 00       	jmp    c019abc1 <vsnprintf+0x547>
c019a8f7:	83 45 14 04          	addl   $0x4,0x14(%ebp)
c019a8fb:	8b 45 14             	mov    0x14(%ebp),%eax
c019a8fe:	8b 00                	mov    (%eax),%eax
c019a900:	89 45 dc             	mov    %eax,-0x24(%ebp)
c019a903:	83 7d dc 00          	cmpl   $0x0,-0x24(%ebp)
c019a907:	75 07                	jne    c019a910 <vsnprintf+0x296>
c019a909:	c7 45 dc 20 c1 19 c0 	movl   $0xc019c120,-0x24(%ebp)
c019a910:	8b 45 d0             	mov    -0x30(%ebp),%eax
c019a913:	83 ec 08             	sub    $0x8,%esp
c019a916:	50                   	push   %eax
c019a917:	ff 75 dc             	push   -0x24(%ebp)
c019a91a:	e8 4f 0f 00 00       	call   c019b86e <strnlen>
c019a91f:	83 c4 10             	add    $0x10,%esp
c019a922:	89 45 c8             	mov    %eax,-0x38(%ebp)
c019a925:	8b 45 d8             	mov    -0x28(%ebp),%eax
c019a928:	83 e0 10             	and    $0x10,%eax
c019a92b:	85 c0                	test   %eax,%eax
c019a92d:	75 22                	jne    c019a951 <vsnprintf+0x2d7>
c019a92f:	eb 12                	jmp    c019a943 <vsnprintf+0x2c9>
c019a931:	8b 45 e4             	mov    -0x1c(%ebp),%eax
c019a934:	3b 45 e0             	cmp    -0x20(%ebp),%eax
c019a937:	77 06                	ja     c019a93f <vsnprintf+0x2c5>
c019a939:	8b 45 e4             	mov    -0x1c(%ebp),%eax
c019a93c:	c6 00 20             	movb   $0x20,(%eax)
c019a93f:	83 45 e4 01          	addl   $0x1,-0x1c(%ebp)
c019a943:	8b 45 d4             	mov    -0x2c(%ebp),%eax
c019a946:	8d 50 ff             	lea    -0x1(%eax),%edx
c019a949:	89 55 d4             	mov    %edx,-0x2c(%ebp)
c019a94c:	39 45 c8             	cmp    %eax,-0x38(%ebp)
c019a94f:	7c e0                	jl     c019a931 <vsnprintf+0x2b7>
c019a951:	c7 45 ec 00 00 00 00 	movl   $0x0,-0x14(%ebp)
c019a958:	eb 1f                	jmp    c019a979 <vsnprintf+0x2ff>
c019a95a:	8b 45 e4             	mov    -0x1c(%ebp),%eax
c019a95d:	3b 45 e0             	cmp    -0x20(%ebp),%eax
c019a960:	77 0b                	ja     c019a96d <vsnprintf+0x2f3>
c019a962:	8b 45 dc             	mov    -0x24(%ebp),%eax
c019a965:	0f b6 10             	movzbl (%eax),%edx
c019a968:	8b 45 e4             	mov    -0x1c(%ebp),%eax
c019a96b:	88 10                	mov    %dl,(%eax)
c019a96d:	83 45 e4 01          	addl   $0x1,-0x1c(%ebp)
c019a971:	83 45 dc 01          	addl   $0x1,-0x24(%ebp)
c019a975:	83 45 ec 01          	addl   $0x1,-0x14(%ebp)
c019a979:	8b 45 ec             	mov    -0x14(%ebp),%eax
c019a97c:	3b 45 c8             	cmp    -0x38(%ebp),%eax
c019a97f:	7c d9                	jl     c019a95a <vsnprintf+0x2e0>
c019a981:	eb 12                	jmp    c019a995 <vsnprintf+0x31b>
c019a983:	8b 45 e4             	mov    -0x1c(%ebp),%eax
c019a986:	3b 45 e0             	cmp    -0x20(%ebp),%eax
c019a989:	77 06                	ja     c019a991 <vsnprintf+0x317>
c019a98b:	8b 45 e4             	mov    -0x1c(%ebp),%eax
c019a98e:	c6 00 20             	movb   $0x20,(%eax)
c019a991:	83 45 e4 01          	addl   $0x1,-0x1c(%ebp)
c019a995:	8b 45 d4             	mov    -0x2c(%ebp),%eax
c019a998:	8d 50 ff             	lea    -0x1(%eax),%edx
c019a99b:	89 55 d4             	mov    %edx,-0x2c(%ebp)
c019a99e:	39 45 c8             	cmp    %eax,-0x38(%ebp)
c019a9a1:	7c e0                	jl     c019a983 <vsnprintf+0x309>
c019a9a3:	e9 19 02 00 00       	jmp    c019abc1 <vsnprintf+0x547>
c019a9a8:	83 7d d4 ff          	cmpl   $0xffffffff,-0x2c(%ebp)
c019a9ac:	75 0b                	jne    c019a9b9 <vsnprintf+0x33f>
c019a9ae:	c7 45 d4 08 00 00 00 	movl   $0x8,-0x2c(%ebp)
c019a9b5:	83 4d d8 01          	orl    $0x1,-0x28(%ebp)
c019a9b9:	83 45 14 04          	addl   $0x4,0x14(%ebp)
c019a9bd:	8b 45 14             	mov    0x14(%ebp),%eax
c019a9c0:	8b 00                	mov    (%eax),%eax
c019a9c2:	ba 00 00 00 00       	mov    $0x0,%edx
c019a9c7:	ff 75 d8             	push   -0x28(%ebp)
c019a9ca:	ff 75 d0             	push   -0x30(%ebp)
c019a9cd:	ff 75 d4             	push   -0x2c(%ebp)
c019a9d0:	6a 10                	push   $0x10
c019a9d2:	52                   	push   %edx
c019a9d3:	50                   	push   %eax
c019a9d4:	ff 75 e0             	push   -0x20(%ebp)
c019a9d7:	ff 75 e4             	push   -0x1c(%ebp)
c019a9da:	e8 9d f9 ff ff       	call   c019a37c <number>
c019a9df:	83 c4 20             	add    $0x20,%esp
c019a9e2:	89 45 e4             	mov    %eax,-0x1c(%ebp)
c019a9e5:	e9 d7 01 00 00       	jmp    c019abc1 <vsnprintf+0x547>
c019a9ea:	83 7d cc 6c          	cmpl   $0x6c,-0x34(%ebp)
c019a9ee:	75 1e                	jne    c019aa0e <vsnprintf+0x394>
c019a9f0:	83 45 14 04          	addl   $0x4,0x14(%ebp)
c019a9f4:	8b 45 14             	mov    0x14(%ebp),%eax
c019a9f7:	8b 00                	mov    (%eax),%eax
c019a9f9:	89 45 bc             	mov    %eax,-0x44(%ebp)
c019a9fc:	8b 45 e4             	mov    -0x1c(%ebp),%eax
c019a9ff:	2b 45 08             	sub    0x8(%ebp),%eax
c019aa02:	89 c2                	mov    %eax,%edx
c019aa04:	8b 45 bc             	mov    -0x44(%ebp),%eax
c019aa07:	89 10                	mov    %edx,(%eax)
c019aa09:	e9 b3 01 00 00       	jmp    c019abc1 <vsnprintf+0x547>
c019aa0e:	83 7d cc 5a          	cmpl   $0x5a,-0x34(%ebp)
c019aa12:	74 06                	je     c019aa1a <vsnprintf+0x3a0>
c019aa14:	83 7d cc 7a          	cmpl   $0x7a,-0x34(%ebp)
c019aa18:	75 1f                	jne    c019aa39 <vsnprintf+0x3bf>
c019aa1a:	83 45 14 04          	addl   $0x4,0x14(%ebp)
c019aa1e:	8b 45 14             	mov    0x14(%ebp),%eax
c019aa21:	8b 00                	mov    (%eax),%eax
c019aa23:	89 45 c0             	mov    %eax,-0x40(%ebp)
c019aa26:	8b 45 e4             	mov    -0x1c(%ebp),%eax
c019aa29:	2b 45 08             	sub    0x8(%ebp),%eax
c019aa2c:	89 c2                	mov    %eax,%edx
c019aa2e:	8b 45 c0             	mov    -0x40(%ebp),%eax
c019aa31:	89 10                	mov    %edx,(%eax)
c019aa33:	90                   	nop
c019aa34:	e9 88 01 00 00       	jmp    c019abc1 <vsnprintf+0x547>
c019aa39:	83 45 14 04          	addl   $0x4,0x14(%ebp)
c019aa3d:	8b 45 14             	mov    0x14(%ebp),%eax
c019aa40:	8b 00                	mov    (%eax),%eax
c019aa42:	89 45 c4             	mov    %eax,-0x3c(%ebp)
c019aa45:	8b 45 e4             	mov    -0x1c(%ebp),%eax
c019aa48:	2b 45 08             	sub    0x8(%ebp),%eax
c019aa4b:	89 c2                	mov    %eax,%edx
c019aa4d:	8b 45 c4             	mov    -0x3c(%ebp),%eax
c019aa50:	89 10                	mov    %edx,(%eax)
c019aa52:	e9 6a 01 00 00       	jmp    c019abc1 <vsnprintf+0x547>
c019aa57:	8b 45 e4             	mov    -0x1c(%ebp),%eax
c019aa5a:	3b 45 e0             	cmp    -0x20(%ebp),%eax
c019aa5d:	77 06                	ja     c019aa65 <vsnprintf+0x3eb>
c019aa5f:	8b 45 e4             	mov    -0x1c(%ebp),%eax
c019aa62:	c6 00 25             	movb   $0x25,(%eax)
c019aa65:	83 45 e4 01          	addl   $0x1,-0x1c(%ebp)
c019aa69:	e9 53 01 00 00       	jmp    c019abc1 <vsnprintf+0x547>
c019aa6e:	c7 45 e8 08 00 00 00 	movl   $0x8,-0x18(%ebp)
c019aa75:	eb 5a                	jmp    c019aad1 <vsnprintf+0x457>
c019aa77:	83 4d d8 40          	orl    $0x40,-0x28(%ebp)
c019aa7b:	c7 45 e8 10 00 00 00 	movl   $0x10,-0x18(%ebp)
c019aa82:	eb 4d                	jmp    c019aad1 <vsnprintf+0x457>
c019aa84:	83 4d d8 02          	orl    $0x2,-0x28(%ebp)
c019aa88:	eb 46                	jmp    c019aad0 <vsnprintf+0x456>
c019aa8a:	8b 45 e4             	mov    -0x1c(%ebp),%eax
c019aa8d:	3b 45 e0             	cmp    -0x20(%ebp),%eax
c019aa90:	77 06                	ja     c019aa98 <vsnprintf+0x41e>
c019aa92:	8b 45 e4             	mov    -0x1c(%ebp),%eax
c019aa95:	c6 00 25             	movb   $0x25,(%eax)
c019aa98:	83 45 e4 01          	addl   $0x1,-0x1c(%ebp)
c019aa9c:	8b 45 10             	mov    0x10(%ebp),%eax
c019aa9f:	0f b6 00             	movzbl (%eax),%eax
c019aaa2:	84 c0                	test   %al,%al
c019aaa4:	74 1c                	je     c019aac2 <vsnprintf+0x448>
c019aaa6:	8b 45 e4             	mov    -0x1c(%ebp),%eax
c019aaa9:	3b 45 e0             	cmp    -0x20(%ebp),%eax
c019aaac:	77 0b                	ja     c019aab9 <vsnprintf+0x43f>
c019aaae:	8b 45 10             	mov    0x10(%ebp),%eax
c019aab1:	0f b6 10             	movzbl (%eax),%edx
c019aab4:	8b 45 e4             	mov    -0x1c(%ebp),%eax
c019aab7:	88 10                	mov    %dl,(%eax)
c019aab9:	83 45 e4 01          	addl   $0x1,-0x1c(%ebp)
c019aabd:	e9 ff 00 00 00       	jmp    c019abc1 <vsnprintf+0x547>
c019aac2:	8b 45 10             	mov    0x10(%ebp),%eax
c019aac5:	83 e8 01             	sub    $0x1,%eax
c019aac8:	89 45 10             	mov    %eax,0x10(%ebp)
c019aacb:	e9 f1 00 00 00       	jmp    c019abc1 <vsnprintf+0x547>
c019aad0:	90                   	nop
c019aad1:	83 7d cc 4c          	cmpl   $0x4c,-0x34(%ebp)
c019aad5:	75 17                	jne    c019aaee <vsnprintf+0x474>
c019aad7:	83 45 14 04          	addl   $0x4,0x14(%ebp)
c019aadb:	8b 45 14             	mov    0x14(%ebp),%eax
c019aade:	8b 50 04             	mov    0x4(%eax),%edx
c019aae1:	8b 00                	mov    (%eax),%eax
c019aae3:	89 45 f0             	mov    %eax,-0x10(%ebp)
c019aae6:	89 55 f4             	mov    %edx,-0xc(%ebp)
c019aae9:	e9 ae 00 00 00       	jmp    c019ab9c <vsnprintf+0x522>
c019aaee:	83 7d cc 6c          	cmpl   $0x6c,-0x34(%ebp)
c019aaf2:	75 2d                	jne    c019ab21 <vsnprintf+0x4a7>
c019aaf4:	83 45 14 04          	addl   $0x4,0x14(%ebp)
c019aaf8:	8b 45 14             	mov    0x14(%ebp),%eax
c019aafb:	8b 00                	mov    (%eax),%eax
c019aafd:	89 45 f0             	mov    %eax,-0x10(%ebp)
c019ab00:	c7 45 f4 00 00 00 00 	movl   $0x0,-0xc(%ebp)
c019ab07:	8b 45 d8             	mov    -0x28(%ebp),%eax
c019ab0a:	83 e0 02             	and    $0x2,%eax
c019ab0d:	85 c0                	test   %eax,%eax
c019ab0f:	0f 84 87 00 00 00    	je     c019ab9c <vsnprintf+0x522>
c019ab15:	8b 45 f0             	mov    -0x10(%ebp),%eax
c019ab18:	99                   	cltd   
c019ab19:	89 45 f0             	mov    %eax,-0x10(%ebp)
c019ab1c:	89 55 f4             	mov    %edx,-0xc(%ebp)
c019ab1f:	eb 7b                	jmp    c019ab9c <vsnprintf+0x522>
c019ab21:	83 7d cc 5a          	cmpl   $0x5a,-0x34(%ebp)
c019ab25:	74 06                	je     c019ab2d <vsnprintf+0x4b3>
c019ab27:	83 7d cc 7a          	cmpl   $0x7a,-0x34(%ebp)
c019ab2b:	75 15                	jne    c019ab42 <vsnprintf+0x4c8>
c019ab2d:	83 45 14 04          	addl   $0x4,0x14(%ebp)
c019ab31:	8b 45 14             	mov    0x14(%ebp),%eax
c019ab34:	8b 00                	mov    (%eax),%eax
c019ab36:	89 45 f0             	mov    %eax,-0x10(%ebp)
c019ab39:	c7 45 f4 00 00 00 00 	movl   $0x0,-0xc(%ebp)
c019ab40:	eb 5a                	jmp    c019ab9c <vsnprintf+0x522>
c019ab42:	83 7d cc 68          	cmpl   $0x68,-0x34(%ebp)
c019ab46:	75 2d                	jne    c019ab75 <vsnprintf+0x4fb>
c019ab48:	83 45 14 04          	addl   $0x4,0x14(%ebp)
c019ab4c:	8b 45 14             	mov    0x14(%ebp),%eax
c019ab4f:	8b 00                	mov    (%eax),%eax
c019ab51:	0f b7 c0             	movzwl %ax,%eax
c019ab54:	89 45 f0             	mov    %eax,-0x10(%ebp)
c019ab57:	c7 45 f4 00 00 00 00 	movl   $0x0,-0xc(%ebp)
c019ab5e:	8b 45 d8             	mov    -0x28(%ebp),%eax
c019ab61:	83 e0 02             	and    $0x2,%eax
c019ab64:	85 c0                	test   %eax,%eax
c019ab66:	74 34                	je     c019ab9c <vsnprintf+0x522>
c019ab68:	8b 45 f0             	mov    -0x10(%ebp),%eax
c019ab6b:	98                   	cwtl   
c019ab6c:	99                   	cltd   
c019ab6d:	89 45 f0             	mov    %eax,-0x10(%ebp)
c019ab70:	89 55 f4             	mov    %edx,-0xc(%ebp)
c019ab73:	eb 27                	jmp    c019ab9c <vsnprintf+0x522>
c019ab75:	83 45 14 04          	addl   $0x4,0x14(%ebp)
c019ab79:	8b 45 14             	mov    0x14(%ebp),%eax
c019ab7c:	8b 00                	mov    (%eax),%eax
c019ab7e:	89 45 f0             	mov    %eax,-0x10(%ebp)
c019ab81:	c7 45 f4 00 00 00 00 	movl   $0x0,-0xc(%ebp)
c019ab88:	8b 45 d8             	mov    -0x28(%ebp),%eax
c019ab8b:	83 e0 02             	and    $0x2,%eax
c019ab8e:	85 c0                	test   %eax,%eax
c019ab90:	74 0a                	je     c019ab9c <vsnprintf+0x522>
c019ab92:	8b 45 f0             	mov    -0x10(%ebp),%eax
c019ab95:	99                   	cltd   
c019ab96:	89 45 f0             	mov    %eax,-0x10(%ebp)
c019ab99:	89 55 f4             	mov    %edx,-0xc(%ebp)
c019ab9c:	8b 45 f0             	mov    -0x10(%ebp),%eax
c019ab9f:	8b 55 f4             	mov    -0xc(%ebp),%edx
c019aba2:	ff 75 d8             	push   -0x28(%ebp)
c019aba5:	ff 75 d0             	push   -0x30(%ebp)
c019aba8:	ff 75 d4             	push   -0x2c(%ebp)
c019abab:	ff 75 e8             	push   -0x18(%ebp)
c019abae:	52                   	push   %edx
c019abaf:	50                   	push   %eax
c019abb0:	ff 75 e0             	push   -0x20(%ebp)
c019abb3:	ff 75 e4             	push   -0x1c(%ebp)
c019abb6:	e8 c1 f7 ff ff       	call   c019a37c <number>
c019abbb:	83 c4 20             	add    $0x20,%esp
c019abbe:	89 45 e4             	mov    %eax,-0x1c(%ebp)
c019abc1:	8b 45 10             	mov    0x10(%ebp),%eax
c019abc4:	83 c0 01             	add    $0x1,%eax
c019abc7:	89 45 10             	mov    %eax,0x10(%ebp)
c019abca:	8b 45 10             	mov    0x10(%ebp),%eax
c019abcd:	0f b6 00             	movzbl (%eax),%eax
c019abd0:	84 c0                	test   %al,%al
c019abd2:	0f 85 e3 fa ff ff    	jne    c019a6bb <vsnprintf+0x41>
c019abd8:	8b 45 e4             	mov    -0x1c(%ebp),%eax
c019abdb:	3b 45 e0             	cmp    -0x20(%ebp),%eax
c019abde:	77 08                	ja     c019abe8 <vsnprintf+0x56e>
c019abe0:	8b 45 e4             	mov    -0x1c(%ebp),%eax
c019abe3:	c6 00 00             	movb   $0x0,(%eax)
c019abe6:	eb 0c                	jmp    c019abf4 <vsnprintf+0x57a>
c019abe8:	83 7d 0c 00          	cmpl   $0x0,0xc(%ebp)
c019abec:	74 06                	je     c019abf4 <vsnprintf+0x57a>
c019abee:	8b 45 e0             	mov    -0x20(%ebp),%eax
c019abf1:	c6 00 00             	movb   $0x0,(%eax)
c019abf4:	8b 45 e4             	mov    -0x1c(%ebp),%eax
c019abf7:	2b 45 08             	sub    0x8(%ebp),%eax
c019abfa:	c9                   	leave  
c019abfb:	c3                   	ret    

c019abfc <snprintf>:
c019abfc:	55                   	push   %ebp
c019abfd:	89 e5                	mov    %esp,%ebp
c019abff:	83 ec 18             	sub    $0x18,%esp
c019ac02:	8d 45 10             	lea    0x10(%ebp),%eax
c019ac05:	89 45 f4             	mov    %eax,-0xc(%ebp)
c019ac08:	8b 45 10             	mov    0x10(%ebp),%eax
c019ac0b:	ff 75 f4             	push   -0xc(%ebp)
c019ac0e:	50                   	push   %eax
c019ac0f:	ff 75 0c             	push   0xc(%ebp)
c019ac12:	ff 75 08             	push   0x8(%ebp)
c019ac15:	e8 60 fa ff ff       	call   c019a67a <vsnprintf>
c019ac1a:	83 c4 10             	add    $0x10,%esp
c019ac1d:	89 45 f0             	mov    %eax,-0x10(%ebp)
c019ac20:	c7 45 f4 00 00 00 00 	movl   $0x0,-0xc(%ebp)
c019ac27:	8b 45 f0             	mov    -0x10(%ebp),%eax
c019ac2a:	c9                   	leave  
c019ac2b:	c3                   	ret    

c019ac2c <vsprintf>:
c019ac2c:	55                   	push   %ebp
c019ac2d:	89 e5                	mov    %esp,%ebp
c019ac2f:	83 ec 08             	sub    $0x8,%esp
c019ac32:	ff 75 10             	push   0x10(%ebp)
c019ac35:	ff 75 0c             	push   0xc(%ebp)
c019ac38:	6a ff                	push   $0xffffffff
c019ac3a:	ff 75 08             	push   0x8(%ebp)
c019ac3d:	e8 38 fa ff ff       	call   c019a67a <vsnprintf>
c019ac42:	83 c4 10             	add    $0x10,%esp
c019ac45:	c9                   	leave  
c019ac46:	c3                   	ret    

c019ac47 <sprintf>:
c019ac47:	55                   	push   %ebp
c019ac48:	89 e5                	mov    %esp,%ebp
c019ac4a:	83 ec 18             	sub    $0x18,%esp
c019ac4d:	8d 45 0c             	lea    0xc(%ebp),%eax
c019ac50:	89 45 f4             	mov    %eax,-0xc(%ebp)
c019ac53:	8b 45 0c             	mov    0xc(%ebp),%eax
c019ac56:	83 ec 04             	sub    $0x4,%esp
c019ac59:	ff 75 f4             	push   -0xc(%ebp)
c019ac5c:	50                   	push   %eax
c019ac5d:	ff 75 08             	push   0x8(%ebp)
c019ac60:	e8 c7 ff ff ff       	call   c019ac2c <vsprintf>
c019ac65:	83 c4 10             	add    $0x10,%esp
c019ac68:	89 45 f0             	mov    %eax,-0x10(%ebp)
c019ac6b:	c7 45 f4 00 00 00 00 	movl   $0x0,-0xc(%ebp)
c019ac72:	8b 45 f0             	mov    -0x10(%ebp),%eax
c019ac75:	c9                   	leave  
c019ac76:	c3                   	ret    

c019ac77 <outsb>:
c019ac77:	55                   	push   %ebp
c019ac78:	89 e5                	mov    %esp,%ebp
c019ac7a:	56                   	push   %esi
c019ac7b:	53                   	push   %ebx
c019ac7c:	83 ec 04             	sub    $0x4,%esp
c019ac7f:	8b 45 08             	mov    0x8(%ebp),%eax
c019ac82:	66 89 45 f4          	mov    %ax,-0xc(%ebp)
c019ac86:	0f b7 55 f4          	movzwl -0xc(%ebp),%edx
c019ac8a:	8b 4d 0c             	mov    0xc(%ebp),%ecx
c019ac8d:	8b 45 10             	mov    0x10(%ebp),%eax
c019ac90:	89 cb                	mov    %ecx,%ebx
c019ac92:	89 de                	mov    %ebx,%esi
c019ac94:	89 c1                	mov    %eax,%ecx
c019ac96:	f3 6e                	rep outsb %ds:(%esi),(%dx)
c019ac98:	89 c8                	mov    %ecx,%eax
c019ac9a:	89 f3                	mov    %esi,%ebx
c019ac9c:	89 5d 0c             	mov    %ebx,0xc(%ebp)
c019ac9f:	89 45 10             	mov    %eax,0x10(%ebp)
c019aca2:	90                   	nop
c019aca3:	83 c4 04             	add    $0x4,%esp
c019aca6:	5b                   	pop    %ebx
c019aca7:	5e                   	pop    %esi
c019aca8:	5d                   	pop    %ebp
c019aca9:	c3                   	ret    

c019acaa <outsw>:
c019acaa:	55                   	push   %ebp
c019acab:	89 e5                	mov    %esp,%ebp
c019acad:	56                   	push   %esi
c019acae:	53                   	push   %ebx
c019acaf:	83 ec 04             	sub    $0x4,%esp
c019acb2:	8b 45 08             	mov    0x8(%ebp),%eax
c019acb5:	66 89 45 f4          	mov    %ax,-0xc(%ebp)
c019acb9:	0f b7 55 f4          	movzwl -0xc(%ebp),%edx
c019acbd:	8b 4d 0c             	mov    0xc(%ebp),%ecx
c019acc0:	8b 45 10             	mov    0x10(%ebp),%eax
c019acc3:	89 cb                	mov    %ecx,%ebx
c019acc5:	89 de                	mov    %ebx,%esi
c019acc7:	89 c1                	mov    %eax,%ecx
c019acc9:	f3 66 6f             	rep outsw %ds:(%esi),(%dx)
c019accc:	89 c8                	mov    %ecx,%eax
c019acce:	89 f3                	mov    %esi,%ebx
c019acd0:	89 5d 0c             	mov    %ebx,0xc(%ebp)
c019acd3:	89 45 10             	mov    %eax,0x10(%ebp)
c019acd6:	90                   	nop
c019acd7:	83 c4 04             	add    $0x4,%esp
c019acda:	5b                   	pop    %ebx
c019acdb:	5e                   	pop    %esi
c019acdc:	5d                   	pop    %ebp
c019acdd:	c3                   	ret    

c019acde <outsl>:
c019acde:	55                   	push   %ebp
c019acdf:	89 e5                	mov    %esp,%ebp
c019ace1:	56                   	push   %esi
c019ace2:	53                   	push   %ebx
c019ace3:	83 ec 04             	sub    $0x4,%esp
c019ace6:	8b 45 08             	mov    0x8(%ebp),%eax
c019ace9:	66 89 45 f4          	mov    %ax,-0xc(%ebp)
c019aced:	0f b7 55 f4          	movzwl -0xc(%ebp),%edx
c019acf1:	8b 4d 0c             	mov    0xc(%ebp),%ecx
c019acf4:	8b 45 10             	mov    0x10(%ebp),%eax
c019acf7:	89 cb                	mov    %ecx,%ebx
c019acf9:	89 de                	mov    %ebx,%esi
c019acfb:	89 c1                	mov    %eax,%ecx
c019acfd:	f3 6f                	rep outsl %ds:(%esi),(%dx)
c019acff:	89 c8                	mov    %ecx,%eax
c019ad01:	89 f3                	mov    %esi,%ebx
c019ad03:	89 5d 0c             	mov    %ebx,0xc(%ebp)
c019ad06:	89 45 10             	mov    %eax,0x10(%ebp)
c019ad09:	90                   	nop
c019ad0a:	83 c4 04             	add    $0x4,%esp
c019ad0d:	5b                   	pop    %ebx
c019ad0e:	5e                   	pop    %esi
c019ad0f:	5d                   	pop    %ebp
c019ad10:	c3                   	ret    

c019ad11 <insb>:
c019ad11:	55                   	push   %ebp
c019ad12:	89 e5                	mov    %esp,%ebp
c019ad14:	57                   	push   %edi
c019ad15:	53                   	push   %ebx
c019ad16:	83 ec 04             	sub    $0x4,%esp
c019ad19:	8b 45 08             	mov    0x8(%ebp),%eax
c019ad1c:	66 89 45 f4          	mov    %ax,-0xc(%ebp)
c019ad20:	0f b7 55 f4          	movzwl -0xc(%ebp),%edx
c019ad24:	8b 4d 0c             	mov    0xc(%ebp),%ecx
c019ad27:	8b 45 10             	mov    0x10(%ebp),%eax
c019ad2a:	89 cb                	mov    %ecx,%ebx
c019ad2c:	89 df                	mov    %ebx,%edi
c019ad2e:	89 c1                	mov    %eax,%ecx
c019ad30:	f3 6c                	rep insb (%dx),%es:(%edi)
c019ad32:	89 c8                	mov    %ecx,%eax
c019ad34:	89 fb                	mov    %edi,%ebx
c019ad36:	89 5d 0c             	mov    %ebx,0xc(%ebp)
c019ad39:	89 45 10             	mov    %eax,0x10(%ebp)
c019ad3c:	90                   	nop
c019ad3d:	83 c4 04             	add    $0x4,%esp
c019ad40:	5b                   	pop    %ebx
c019ad41:	5f                   	pop    %edi
c019ad42:	5d                   	pop    %ebp
c019ad43:	c3                   	ret    

c019ad44 <insw>:
c019ad44:	55                   	push   %ebp
c019ad45:	89 e5                	mov    %esp,%ebp
c019ad47:	57                   	push   %edi
c019ad48:	53                   	push   %ebx
c019ad49:	83 ec 04             	sub    $0x4,%esp
c019ad4c:	8b 45 08             	mov    0x8(%ebp),%eax
c019ad4f:	66 89 45 f4          	mov    %ax,-0xc(%ebp)
c019ad53:	0f b7 55 f4          	movzwl -0xc(%ebp),%edx
c019ad57:	8b 4d 0c             	mov    0xc(%ebp),%ecx
c019ad5a:	8b 45 10             	mov    0x10(%ebp),%eax
c019ad5d:	89 cb                	mov    %ecx,%ebx
c019ad5f:	89 df                	mov    %ebx,%edi
c019ad61:	89 c1                	mov    %eax,%ecx
c019ad63:	f3 66 6d             	rep insw (%dx),%es:(%edi)
c019ad66:	89 c8                	mov    %ecx,%eax
c019ad68:	89 fb                	mov    %edi,%ebx
c019ad6a:	89 5d 0c             	mov    %ebx,0xc(%ebp)
c019ad6d:	89 45 10             	mov    %eax,0x10(%ebp)
c019ad70:	90                   	nop
c019ad71:	83 c4 04             	add    $0x4,%esp
c019ad74:	5b                   	pop    %ebx
c019ad75:	5f                   	pop    %edi
c019ad76:	5d                   	pop    %ebp
c019ad77:	c3                   	ret    

c019ad78 <insl>:
c019ad78:	55                   	push   %ebp
c019ad79:	89 e5                	mov    %esp,%ebp
c019ad7b:	57                   	push   %edi
c019ad7c:	53                   	push   %ebx
c019ad7d:	83 ec 04             	sub    $0x4,%esp
c019ad80:	8b 45 08             	mov    0x8(%ebp),%eax
c019ad83:	66 89 45 f4          	mov    %ax,-0xc(%ebp)
c019ad87:	0f b7 55 f4          	movzwl -0xc(%ebp),%edx
c019ad8b:	8b 4d 0c             	mov    0xc(%ebp),%ecx
c019ad8e:	8b 45 10             	mov    0x10(%ebp),%eax
c019ad91:	89 cb                	mov    %ecx,%ebx
c019ad93:	89 df                	mov    %ebx,%edi
c019ad95:	89 c1                	mov    %eax,%ecx
c019ad97:	f3 6d                	rep insl (%dx),%es:(%edi)
c019ad99:	89 c8                	mov    %ecx,%eax
c019ad9b:	89 fb                	mov    %edi,%ebx
c019ad9d:	89 5d 0c             	mov    %ebx,0xc(%ebp)
c019ada0:	89 45 10             	mov    %eax,0x10(%ebp)
c019ada3:	90                   	nop
c019ada4:	83 c4 04             	add    $0x4,%esp
c019ada7:	5b                   	pop    %ebx
c019ada8:	5f                   	pop    %edi
c019ada9:	5d                   	pop    %ebp
c019adaa:	c3                   	ret    

c019adab <inb>:
c019adab:	55                   	push   %ebp
c019adac:	89 e5                	mov    %esp,%ebp
c019adae:	83 ec 14             	sub    $0x14,%esp
c019adb1:	8b 45 08             	mov    0x8(%ebp),%eax
c019adb4:	66 89 45 ec          	mov    %ax,-0x14(%ebp)
c019adb8:	0f b7 45 ec          	movzwl -0x14(%ebp),%eax
c019adbc:	89 c2                	mov    %eax,%edx
c019adbe:	ec                   	in     (%dx),%al
c019adbf:	88 45 ff             	mov    %al,-0x1(%ebp)
c019adc2:	0f b6 45 ff          	movzbl -0x1(%ebp),%eax
c019adc6:	c9                   	leave  
c019adc7:	c3                   	ret    

c019adc8 <inw>:
c019adc8:	55                   	push   %ebp
c019adc9:	89 e5                	mov    %esp,%ebp
c019adcb:	83 ec 14             	sub    $0x14,%esp
c019adce:	8b 45 08             	mov    0x8(%ebp),%eax
c019add1:	66 89 45 ec          	mov    %ax,-0x14(%ebp)
c019add5:	0f b7 45 ec          	movzwl -0x14(%ebp),%eax
c019add9:	89 c2                	mov    %eax,%edx
c019addb:	66 ed                	in     (%dx),%ax
c019addd:	66 89 45 fe          	mov    %ax,-0x2(%ebp)
c019ade1:	0f b7 45 fe          	movzwl -0x2(%ebp),%eax
c019ade5:	c9                   	leave  
c019ade6:	c3                   	ret    

c019ade7 <inl>:
c019ade7:	55                   	push   %ebp
c019ade8:	89 e5                	mov    %esp,%ebp
c019adea:	83 ec 14             	sub    $0x14,%esp
c019aded:	8b 45 08             	mov    0x8(%ebp),%eax
c019adf0:	66 89 45 ec          	mov    %ax,-0x14(%ebp)
c019adf4:	0f b7 45 ec          	movzwl -0x14(%ebp),%eax
c019adf8:	89 c2                	mov    %eax,%edx
c019adfa:	ed                   	in     (%dx),%eax
c019adfb:	89 45 fc             	mov    %eax,-0x4(%ebp)
c019adfe:	8b 45 fc             	mov    -0x4(%ebp),%eax
c019ae01:	c9                   	leave  
c019ae02:	c3                   	ret    

c019ae03 <inb_p>:
c019ae03:	55                   	push   %ebp
c019ae04:	89 e5                	mov    %esp,%ebp
c019ae06:	83 ec 14             	sub    $0x14,%esp
c019ae09:	8b 45 08             	mov    0x8(%ebp),%eax
c019ae0c:	66 89 45 ec          	mov    %ax,-0x14(%ebp)
c019ae10:	0f b7 45 ec          	movzwl -0x14(%ebp),%eax
c019ae14:	89 c2                	mov    %eax,%edx
c019ae16:	ec                   	in     (%dx),%al
c019ae17:	eb 00                	jmp    c019ae19 <inb_p+0x16>
c019ae19:	eb 00                	jmp    c019ae1b <inb_p+0x18>
c019ae1b:	88 45 ff             	mov    %al,-0x1(%ebp)
c019ae1e:	0f b6 45 ff          	movzbl -0x1(%ebp),%eax
c019ae22:	c9                   	leave  
c019ae23:	c3                   	ret    

c019ae24 <inw_p>:
c019ae24:	55                   	push   %ebp
c019ae25:	89 e5                	mov    %esp,%ebp
c019ae27:	83 ec 14             	sub    $0x14,%esp
c019ae2a:	8b 45 08             	mov    0x8(%ebp),%eax
c019ae2d:	66 89 45 ec          	mov    %ax,-0x14(%ebp)
c019ae31:	0f b7 45 ec          	movzwl -0x14(%ebp),%eax
c019ae35:	89 c2                	mov    %eax,%edx
c019ae37:	66 ed                	in     (%dx),%ax
c019ae39:	eb 00                	jmp    c019ae3b <inw_p+0x17>
c019ae3b:	eb 00                	jmp    c019ae3d <inw_p+0x19>
c019ae3d:	66 89 45 fe          	mov    %ax,-0x2(%ebp)
c019ae41:	0f b7 45 fe          	movzwl -0x2(%ebp),%eax
c019ae45:	c9                   	leave  
c019ae46:	c3                   	ret    

c019ae47 <inl_p>:
c019ae47:	55                   	push   %ebp
c019ae48:	89 e5                	mov    %esp,%ebp
c019ae4a:	83 ec 14             	sub    $0x14,%esp
c019ae4d:	8b 45 08             	mov    0x8(%ebp),%eax
c019ae50:	66 89 45 ec          	mov    %ax,-0x14(%ebp)
c019ae54:	0f b7 45 ec          	movzwl -0x14(%ebp),%eax
c019ae58:	89 c2                	mov    %eax,%edx
c019ae5a:	ed                   	in     (%dx),%eax
c019ae5b:	eb 00                	jmp    c019ae5d <inl_p+0x16>
c019ae5d:	eb 00                	jmp    c019ae5f <inl_p+0x18>
c019ae5f:	89 45 fc             	mov    %eax,-0x4(%ebp)
c019ae62:	8b 45 fc             	mov    -0x4(%ebp),%eax
c019ae65:	c9                   	leave  
c019ae66:	c3                   	ret    

c019ae67 <outb>:
c019ae67:	55                   	push   %ebp
c019ae68:	89 e5                	mov    %esp,%ebp
c019ae6a:	83 ec 08             	sub    $0x8,%esp
c019ae6d:	8b 55 08             	mov    0x8(%ebp),%edx
c019ae70:	8b 45 0c             	mov    0xc(%ebp),%eax
c019ae73:	88 55 fc             	mov    %dl,-0x4(%ebp)
c019ae76:	66 89 45 f8          	mov    %ax,-0x8(%ebp)
c019ae7a:	0f b6 45 fc          	movzbl -0x4(%ebp),%eax
c019ae7e:	0f b7 55 f8          	movzwl -0x8(%ebp),%edx
c019ae82:	ee                   	out    %al,(%dx)
c019ae83:	90                   	nop
c019ae84:	c9                   	leave  
c019ae85:	c3                   	ret    

c019ae86 <outw>:
c019ae86:	55                   	push   %ebp
c019ae87:	89 e5                	mov    %esp,%ebp
c019ae89:	83 ec 08             	sub    $0x8,%esp
c019ae8c:	8b 55 08             	mov    0x8(%ebp),%edx
c019ae8f:	8b 45 0c             	mov    0xc(%ebp),%eax
c019ae92:	66 89 55 fc          	mov    %dx,-0x4(%ebp)
c019ae96:	66 89 45 f8          	mov    %ax,-0x8(%ebp)
c019ae9a:	0f b7 45 fc          	movzwl -0x4(%ebp),%eax
c019ae9e:	0f b7 55 f8          	movzwl -0x8(%ebp),%edx
c019aea2:	66 ef                	out    %ax,(%dx)
c019aea4:	90                   	nop
c019aea5:	c9                   	leave  
c019aea6:	c3                   	ret    

c019aea7 <outl>:
c019aea7:	55                   	push   %ebp
c019aea8:	89 e5                	mov    %esp,%ebp
c019aeaa:	83 ec 04             	sub    $0x4,%esp
c019aead:	8b 45 0c             	mov    0xc(%ebp),%eax
c019aeb0:	66 89 45 fc          	mov    %ax,-0x4(%ebp)
c019aeb4:	8b 45 08             	mov    0x8(%ebp),%eax
c019aeb7:	0f b7 55 fc          	movzwl -0x4(%ebp),%edx
c019aebb:	ef                   	out    %eax,(%dx)
c019aebc:	90                   	nop
c019aebd:	c9                   	leave  
c019aebe:	c3                   	ret    

c019aebf <outb_p>:
c019aebf:	55                   	push   %ebp
c019aec0:	89 e5                	mov    %esp,%ebp
c019aec2:	83 ec 08             	sub    $0x8,%esp
c019aec5:	8b 55 08             	mov    0x8(%ebp),%edx
c019aec8:	8b 45 0c             	mov    0xc(%ebp),%eax
c019aecb:	88 55 fc             	mov    %dl,-0x4(%ebp)
c019aece:	66 89 45 f8          	mov    %ax,-0x8(%ebp)
c019aed2:	0f b6 45 fc          	movzbl -0x4(%ebp),%eax
c019aed6:	0f b7 55 f8          	movzwl -0x8(%ebp),%edx
c019aeda:	ee                   	out    %al,(%dx)
c019aedb:	eb 00                	jmp    c019aedd <outb_p+0x1e>
c019aedd:	eb 00                	jmp    c019aedf <outb_p+0x20>
c019aedf:	90                   	nop
c019aee0:	c9                   	leave  
c019aee1:	c3                   	ret    

c019aee2 <outw_p>:
c019aee2:	55                   	push   %ebp
c019aee3:	89 e5                	mov    %esp,%ebp
c019aee5:	83 ec 08             	sub    $0x8,%esp
c019aee8:	8b 55 08             	mov    0x8(%ebp),%edx
c019aeeb:	8b 45 0c             	mov    0xc(%ebp),%eax
c019aeee:	66 89 55 fc          	mov    %dx,-0x4(%ebp)
c019aef2:	66 89 45 f8          	mov    %ax,-0x8(%ebp)
c019aef6:	0f b7 45 fc          	movzwl -0x4(%ebp),%eax
c019aefa:	0f b7 55 f8          	movzwl -0x8(%ebp),%edx
c019aefe:	66 ef                	out    %ax,(%dx)
c019af00:	eb 00                	jmp    c019af02 <outw_p+0x20>
c019af02:	eb 00                	jmp    c019af04 <outw_p+0x22>
c019af04:	90                   	nop
c019af05:	c9                   	leave  
c019af06:	c3                   	ret    

c019af07 <outl_p>:
c019af07:	55                   	push   %ebp
c019af08:	89 e5                	mov    %esp,%ebp
c019af0a:	83 ec 04             	sub    $0x4,%esp
c019af0d:	8b 45 0c             	mov    0xc(%ebp),%eax
c019af10:	66 89 45 fc          	mov    %ax,-0x4(%ebp)
c019af14:	8b 45 08             	mov    0x8(%ebp),%eax
c019af17:	0f b7 55 fc          	movzwl -0x4(%ebp),%edx
c019af1b:	ef                   	out    %eax,(%dx)
c019af1c:	eb 00                	jmp    c019af1e <outl_p+0x17>
c019af1e:	eb 00                	jmp    c019af20 <outl_p+0x19>
c019af20:	90                   	nop
c019af21:	c9                   	leave  
c019af22:	c3                   	ret    

c019af23 <set_cursor>:
c019af23:	55                   	push   %ebp
c019af24:	89 e5                	mov    %esp,%ebp
c019af26:	83 ec 04             	sub    $0x4,%esp
c019af29:	8b 45 08             	mov    0x8(%ebp),%eax
c019af2c:	66 89 45 fc          	mov    %ax,-0x4(%ebp)
c019af30:	68 d4 03 00 00       	push   $0x3d4
c019af35:	6a 0e                	push   $0xe
c019af37:	e8 2b ff ff ff       	call   c019ae67 <outb>
c019af3c:	83 c4 08             	add    $0x8,%esp
c019af3f:	0f b7 45 fc          	movzwl -0x4(%ebp),%eax
c019af43:	66 c1 e8 08          	shr    $0x8,%ax
c019af47:	0f b6 c0             	movzbl %al,%eax
c019af4a:	68 d5 03 00 00       	push   $0x3d5
c019af4f:	50                   	push   %eax
c019af50:	e8 12 ff ff ff       	call   c019ae67 <outb>
c019af55:	83 c4 08             	add    $0x8,%esp
c019af58:	68 d4 03 00 00       	push   $0x3d4
c019af5d:	6a 0f                	push   $0xf
c019af5f:	e8 03 ff ff ff       	call   c019ae67 <outb>
c019af64:	83 c4 08             	add    $0x8,%esp
c019af67:	0f b7 45 fc          	movzwl -0x4(%ebp),%eax
c019af6b:	0f b6 c0             	movzbl %al,%eax
c019af6e:	68 d5 03 00 00       	push   $0x3d5
c019af73:	50                   	push   %eax
c019af74:	e8 ee fe ff ff       	call   c019ae67 <outb>
c019af79:	83 c4 08             	add    $0x8,%esp
c019af7c:	90                   	nop
c019af7d:	c9                   	leave  
c019af7e:	c3                   	ret    

c019af7f <flush>:
c019af7f:	55                   	push   %ebp
c019af80:	89 e5                	mov    %esp,%ebp
c019af82:	a1 04 e0 19 c0       	mov    0xc019e004,%eax
c019af87:	89 c2                	mov    %eax,%edx
c019af89:	89 d0                	mov    %edx,%eax
c019af8b:	c1 e0 02             	shl    $0x2,%eax
c019af8e:	01 d0                	add    %edx,%eax
c019af90:	c1 e0 04             	shl    $0x4,%eax
c019af93:	89 c2                	mov    %eax,%edx
c019af95:	a1 00 e0 19 c0       	mov    0xc019e000,%eax
c019af9a:	01 d0                	add    %edx,%eax
c019af9c:	0f b7 c0             	movzwl %ax,%eax
c019af9f:	50                   	push   %eax
c019afa0:	e8 7e ff ff ff       	call   c019af23 <set_cursor>
c019afa5:	83 c4 04             	add    $0x4,%esp
c019afa8:	90                   	nop
c019afa9:	c9                   	leave  
c019afaa:	c3                   	ret    

c019afab <scroll_sceen>:
c019afab:	55                   	push   %ebp
c019afac:	89 e5                	mov    %esp,%ebp
c019afae:	83 ec 10             	sub    $0x10,%esp
c019afb1:	c7 45 f8 00 80 0b c0 	movl   $0xc00b8000,-0x8(%ebp)
c019afb8:	83 7d 08 ff          	cmpl   $0xffffffff,0x8(%ebp)
c019afbc:	0f 85 83 00 00 00    	jne    c019b045 <scroll_sceen+0x9a>
c019afc2:	c7 45 fc 00 0f 00 00 	movl   $0xf00,-0x4(%ebp)
c019afc9:	eb 3d                	jmp    c019b008 <scroll_sceen+0x5d>
c019afcb:	8b 45 fc             	mov    -0x4(%ebp),%eax
c019afce:	8d 90 60 ff ff ff    	lea    -0xa0(%eax),%edx
c019afd4:	8b 45 f8             	mov    -0x8(%ebp),%eax
c019afd7:	01 d0                	add    %edx,%eax
c019afd9:	8b 4d fc             	mov    -0x4(%ebp),%ecx
c019afdc:	8b 55 f8             	mov    -0x8(%ebp),%edx
c019afdf:	01 ca                	add    %ecx,%edx
c019afe1:	0f b6 00             	movzbl (%eax),%eax
c019afe4:	88 02                	mov    %al,(%edx)
c019afe6:	8b 45 fc             	mov    -0x4(%ebp),%eax
c019afe9:	8d 90 61 ff ff ff    	lea    -0x9f(%eax),%edx
c019afef:	8b 45 f8             	mov    -0x8(%ebp),%eax
c019aff2:	01 d0                	add    %edx,%eax
c019aff4:	8b 55 fc             	mov    -0x4(%ebp),%edx
c019aff7:	8d 4a 01             	lea    0x1(%edx),%ecx
c019affa:	8b 55 f8             	mov    -0x8(%ebp),%edx
c019affd:	01 ca                	add    %ecx,%edx
c019afff:	0f b6 00             	movzbl (%eax),%eax
c019b002:	88 02                	mov    %al,(%edx)
c019b004:	83 6d fc 02          	subl   $0x2,-0x4(%ebp)
c019b008:	81 7d fc a0 00 00 00 	cmpl   $0xa0,-0x4(%ebp)
c019b00f:	7f ba                	jg     c019afcb <scroll_sceen+0x20>
c019b011:	c7 45 fc 00 00 00 00 	movl   $0x0,-0x4(%ebp)
c019b018:	eb 1d                	jmp    c019b037 <scroll_sceen+0x8c>
c019b01a:	8b 55 fc             	mov    -0x4(%ebp),%edx
c019b01d:	8b 45 f8             	mov    -0x8(%ebp),%eax
c019b020:	01 d0                	add    %edx,%eax
c019b022:	c6 00 00             	movb   $0x0,(%eax)
c019b025:	8b 45 fc             	mov    -0x4(%ebp),%eax
c019b028:	8d 50 01             	lea    0x1(%eax),%edx
c019b02b:	8b 45 f8             	mov    -0x8(%ebp),%eax
c019b02e:	01 d0                	add    %edx,%eax
c019b030:	c6 00 07             	movb   $0x7,(%eax)
c019b033:	83 45 fc 02          	addl   $0x2,-0x4(%ebp)
c019b037:	81 7d fc 9f 00 00 00 	cmpl   $0x9f,-0x4(%ebp)
c019b03e:	7e da                	jle    c019b01a <scroll_sceen+0x6f>
c019b040:	e9 95 00 00 00       	jmp    c019b0da <scroll_sceen+0x12f>
c019b045:	83 7d 08 01          	cmpl   $0x1,0x8(%ebp)
c019b049:	0f 85 8b 00 00 00    	jne    c019b0da <scroll_sceen+0x12f>
c019b04f:	c7 45 fc 00 00 00 00 	movl   $0x0,-0x4(%ebp)
c019b056:	eb 3d                	jmp    c019b095 <scroll_sceen+0xea>
c019b058:	8b 45 fc             	mov    -0x4(%ebp),%eax
c019b05b:	8d 90 a0 00 00 00    	lea    0xa0(%eax),%edx
c019b061:	8b 45 f8             	mov    -0x8(%ebp),%eax
c019b064:	01 d0                	add    %edx,%eax
c019b066:	8b 4d fc             	mov    -0x4(%ebp),%ecx
c019b069:	8b 55 f8             	mov    -0x8(%ebp),%edx
c019b06c:	01 ca                	add    %ecx,%edx
c019b06e:	0f b6 00             	movzbl (%eax),%eax
c019b071:	88 02                	mov    %al,(%edx)
c019b073:	8b 45 fc             	mov    -0x4(%ebp),%eax
c019b076:	8d 90 a1 00 00 00    	lea    0xa1(%eax),%edx
c019b07c:	8b 45 f8             	mov    -0x8(%ebp),%eax
c019b07f:	01 d0                	add    %edx,%eax
c019b081:	8b 55 fc             	mov    -0x4(%ebp),%edx
c019b084:	8d 4a 01             	lea    0x1(%edx),%ecx
c019b087:	8b 55 f8             	mov    -0x8(%ebp),%edx
c019b08a:	01 ca                	add    %ecx,%edx
c019b08c:	0f b6 00             	movzbl (%eax),%eax
c019b08f:	88 02                	mov    %al,(%edx)
c019b091:	83 45 fc 02          	addl   $0x2,-0x4(%ebp)
c019b095:	81 7d fc ff 0e 00 00 	cmpl   $0xeff,-0x4(%ebp)
c019b09c:	7e ba                	jle    c019b058 <scroll_sceen+0xad>
c019b09e:	c7 45 fc 00 0f 00 00 	movl   $0xf00,-0x4(%ebp)
c019b0a5:	eb 1d                	jmp    c019b0c4 <scroll_sceen+0x119>
c019b0a7:	8b 55 fc             	mov    -0x4(%ebp),%edx
c019b0aa:	8b 45 f8             	mov    -0x8(%ebp),%eax
c019b0ad:	01 d0                	add    %edx,%eax
c019b0af:	c6 00 00             	movb   $0x0,(%eax)
c019b0b2:	8b 45 fc             	mov    -0x4(%ebp),%eax
c019b0b5:	8d 50 01             	lea    0x1(%eax),%edx
c019b0b8:	8b 45 f8             	mov    -0x8(%ebp),%eax
c019b0bb:	01 d0                	add    %edx,%eax
c019b0bd:	c6 00 07             	movb   $0x7,(%eax)
c019b0c0:	83 45 fc 02          	addl   $0x2,-0x4(%ebp)
c019b0c4:	81 7d fc 9f 0f 00 00 	cmpl   $0xf9f,-0x4(%ebp)
c019b0cb:	7e da                	jle    c019b0a7 <scroll_sceen+0xfc>
c019b0cd:	a1 04 e0 19 c0       	mov    0xc019e004,%eax
c019b0d2:	83 e8 01             	sub    $0x1,%eax
c019b0d5:	a3 04 e0 19 c0       	mov    %eax,0xc019e004
c019b0da:	e8 a0 fe ff ff       	call   c019af7f <flush>
c019b0df:	90                   	nop
c019b0e0:	c9                   	leave  
c019b0e1:	c3                   	ret    

c019b0e2 <put_char>:
c019b0e2:	55                   	push   %ebp
c019b0e3:	89 e5                	mov    %esp,%ebp
c019b0e5:	83 ec 14             	sub    $0x14,%esp
c019b0e8:	8b 45 08             	mov    0x8(%ebp),%eax
c019b0eb:	88 45 ec             	mov    %al,-0x14(%ebp)
c019b0ee:	8b 15 04 e0 19 c0    	mov    0xc019e004,%edx
c019b0f4:	89 d0                	mov    %edx,%eax
c019b0f6:	c1 e0 02             	shl    $0x2,%eax
c019b0f9:	01 d0                	add    %edx,%eax
c019b0fb:	c1 e0 04             	shl    $0x4,%eax
c019b0fe:	89 c2                	mov    %eax,%edx
c019b100:	a1 00 e0 19 c0       	mov    0xc019e000,%eax
c019b105:	01 d0                	add    %edx,%eax
c019b107:	01 c0                	add    %eax,%eax
c019b109:	2d 00 80 f4 3f       	sub    $0x3ff48000,%eax
c019b10e:	89 45 fc             	mov    %eax,-0x4(%ebp)
c019b111:	0f be 45 ec          	movsbl -0x14(%ebp),%eax
c019b115:	83 f8 0d             	cmp    $0xd,%eax
c019b118:	0f 84 f8 00 00 00    	je     c019b216 <put_char+0x134>
c019b11e:	83 f8 0d             	cmp    $0xd,%eax
c019b121:	0f 8f aa 00 00 00    	jg     c019b1d1 <put_char+0xef>
c019b127:	83 f8 08             	cmp    $0x8,%eax
c019b12a:	74 37                	je     c019b163 <put_char+0x81>
c019b12c:	83 f8 0a             	cmp    $0xa,%eax
c019b12f:	0f 85 9c 00 00 00    	jne    c019b1d1 <put_char+0xef>
c019b135:	8b 45 fc             	mov    -0x4(%ebp),%eax
c019b138:	8d 50 01             	lea    0x1(%eax),%edx
c019b13b:	89 55 fc             	mov    %edx,-0x4(%ebp)
c019b13e:	c6 00 00             	movb   $0x0,(%eax)
c019b141:	8b 45 fc             	mov    -0x4(%ebp),%eax
c019b144:	c6 00 07             	movb   $0x7,(%eax)
c019b147:	c7 05 00 e0 19 c0 00 	movl   $0x0,0xc019e000
c019b14e:	00 00 00 
c019b151:	a1 04 e0 19 c0       	mov    0xc019e004,%eax
c019b156:	83 c0 01             	add    $0x1,%eax
c019b159:	a3 04 e0 19 c0       	mov    %eax,0xc019e004
c019b15e:	e9 ba 00 00 00       	jmp    c019b21d <put_char+0x13b>
c019b163:	a1 00 e0 19 c0       	mov    0xc019e000,%eax
c019b168:	85 c0                	test   %eax,%eax
c019b16a:	0f 88 a9 00 00 00    	js     c019b219 <put_char+0x137>
c019b170:	a1 04 e0 19 c0       	mov    0xc019e004,%eax
c019b175:	85 c0                	test   %eax,%eax
c019b177:	0f 88 9c 00 00 00    	js     c019b219 <put_char+0x137>
c019b17d:	a1 00 e0 19 c0       	mov    0xc019e000,%eax
c019b182:	83 e8 01             	sub    $0x1,%eax
c019b185:	a3 00 e0 19 c0       	mov    %eax,0xc019e000
c019b18a:	a1 00 e0 19 c0       	mov    0xc019e000,%eax
c019b18f:	85 c0                	test   %eax,%eax
c019b191:	79 2a                	jns    c019b1bd <put_char+0xdb>
c019b193:	c7 05 00 e0 19 c0 4f 	movl   $0x4f,0xc019e000
c019b19a:	00 00 00 
c019b19d:	a1 04 e0 19 c0       	mov    0xc019e004,%eax
c019b1a2:	83 e8 01             	sub    $0x1,%eax
c019b1a5:	a3 04 e0 19 c0       	mov    %eax,0xc019e004
c019b1aa:	a1 04 e0 19 c0       	mov    0xc019e004,%eax
c019b1af:	85 c0                	test   %eax,%eax
c019b1b1:	79 0a                	jns    c019b1bd <put_char+0xdb>
c019b1b3:	c7 05 04 e0 19 c0 00 	movl   $0x0,0xc019e004
c019b1ba:	00 00 00 
c019b1bd:	8b 45 fc             	mov    -0x4(%ebp),%eax
c019b1c0:	83 e8 02             	sub    $0x2,%eax
c019b1c3:	c6 00 00             	movb   $0x0,(%eax)
c019b1c6:	8b 45 fc             	mov    -0x4(%ebp),%eax
c019b1c9:	83 e8 01             	sub    $0x1,%eax
c019b1cc:	c6 00 07             	movb   $0x7,(%eax)
c019b1cf:	eb 48                	jmp    c019b219 <put_char+0x137>
c019b1d1:	8b 45 fc             	mov    -0x4(%ebp),%eax
c019b1d4:	8d 50 01             	lea    0x1(%eax),%edx
c019b1d7:	89 55 fc             	mov    %edx,-0x4(%ebp)
c019b1da:	0f b6 55 ec          	movzbl -0x14(%ebp),%edx
c019b1de:	88 10                	mov    %dl,(%eax)
c019b1e0:	8b 45 fc             	mov    -0x4(%ebp),%eax
c019b1e3:	c6 00 07             	movb   $0x7,(%eax)
c019b1e6:	a1 00 e0 19 c0       	mov    0xc019e000,%eax
c019b1eb:	83 c0 01             	add    $0x1,%eax
c019b1ee:	a3 00 e0 19 c0       	mov    %eax,0xc019e000
c019b1f3:	a1 00 e0 19 c0       	mov    0xc019e000,%eax
c019b1f8:	83 f8 4f             	cmp    $0x4f,%eax
c019b1fb:	7e 1f                	jle    c019b21c <put_char+0x13a>
c019b1fd:	c7 05 00 e0 19 c0 00 	movl   $0x0,0xc019e000
c019b204:	00 00 00 
c019b207:	a1 04 e0 19 c0       	mov    0xc019e004,%eax
c019b20c:	83 c0 01             	add    $0x1,%eax
c019b20f:	a3 04 e0 19 c0       	mov    %eax,0xc019e004
c019b214:	eb 06                	jmp    c019b21c <put_char+0x13a>
c019b216:	90                   	nop
c019b217:	eb 10                	jmp    c019b229 <put_char+0x147>
c019b219:	90                   	nop
c019b21a:	eb 0d                	jmp    c019b229 <put_char+0x147>
c019b21c:	90                   	nop
c019b21d:	eb 0a                	jmp    c019b229 <put_char+0x147>
c019b21f:	6a 01                	push   $0x1
c019b221:	e8 85 fd ff ff       	call   c019afab <scroll_sceen>
c019b226:	83 c4 04             	add    $0x4,%esp
c019b229:	a1 04 e0 19 c0       	mov    0xc019e004,%eax
c019b22e:	83 f8 18             	cmp    $0x18,%eax
c019b231:	7f ec                	jg     c019b21f <put_char+0x13d>
c019b233:	e8 47 fd ff ff       	call   c019af7f <flush>
c019b238:	90                   	nop
c019b239:	c9                   	leave  
c019b23a:	c3                   	ret    

c019b23b <print_str>:
c019b23b:	55                   	push   %ebp
c019b23c:	89 e5                	mov    %esp,%ebp
c019b23e:	eb 16                	jmp    c019b256 <print_str+0x1b>
c019b240:	8b 45 08             	mov    0x8(%ebp),%eax
c019b243:	0f b6 00             	movzbl (%eax),%eax
c019b246:	0f be c0             	movsbl %al,%eax
c019b249:	50                   	push   %eax
c019b24a:	e8 93 fe ff ff       	call   c019b0e2 <put_char>
c019b24f:	83 c4 04             	add    $0x4,%esp
c019b252:	83 45 08 01          	addl   $0x1,0x8(%ebp)
c019b256:	8b 45 08             	mov    0x8(%ebp),%eax
c019b259:	0f b6 00             	movzbl (%eax),%eax
c019b25c:	84 c0                	test   %al,%al
c019b25e:	75 e0                	jne    c019b240 <print_str+0x5>
c019b260:	90                   	nop
c019b261:	90                   	nop
c019b262:	c9                   	leave  
c019b263:	c3                   	ret    

c019b264 <print_int>:
c019b264:	55                   	push   %ebp
c019b265:	89 e5                	mov    %esp,%ebp
c019b267:	83 ec 28             	sub    $0x28,%esp
c019b26a:	83 ec 04             	sub    $0x4,%esp
c019b26d:	6a 18                	push   $0x18
c019b26f:	6a 00                	push   $0x0
c019b271:	8d 45 e0             	lea    -0x20(%ebp),%eax
c019b274:	50                   	push   %eax
c019b275:	e8 c7 00 00 00       	call   c019b341 <memset>
c019b27a:	83 c4 10             	add    $0x10,%esp
c019b27d:	83 ec 04             	sub    $0x4,%esp
c019b280:	6a 0a                	push   $0xa
c019b282:	8d 45 e0             	lea    -0x20(%ebp),%eax
c019b285:	50                   	push   %eax
c019b286:	ff 75 08             	push   0x8(%ebp)
c019b289:	e8 6d 04 00 00       	call   c019b6fb <itoa>
c019b28e:	83 c4 10             	add    $0x10,%esp
c019b291:	83 ec 0c             	sub    $0xc,%esp
c019b294:	8d 45 e0             	lea    -0x20(%ebp),%eax
c019b297:	50                   	push   %eax
c019b298:	e8 9e ff ff ff       	call   c019b23b <print_str>
c019b29d:	83 c4 10             	add    $0x10,%esp
c019b2a0:	90                   	nop
c019b2a1:	c9                   	leave  
c019b2a2:	c3                   	ret    

c019b2a3 <print_hex>:
c019b2a3:	55                   	push   %ebp
c019b2a4:	89 e5                	mov    %esp,%ebp
c019b2a6:	83 ec 28             	sub    $0x28,%esp
c019b2a9:	83 ec 04             	sub    $0x4,%esp
c019b2ac:	6a 18                	push   $0x18
c019b2ae:	6a 00                	push   $0x0
c019b2b0:	8d 45 e0             	lea    -0x20(%ebp),%eax
c019b2b3:	50                   	push   %eax
c019b2b4:	e8 88 00 00 00       	call   c019b341 <memset>
c019b2b9:	83 c4 10             	add    $0x10,%esp
c019b2bc:	83 ec 04             	sub    $0x4,%esp
c019b2bf:	6a 10                	push   $0x10
c019b2c1:	8d 45 e0             	lea    -0x20(%ebp),%eax
c019b2c4:	50                   	push   %eax
c019b2c5:	ff 75 08             	push   0x8(%ebp)
c019b2c8:	e8 e5 04 00 00       	call   c019b7b2 <uitoa>
c019b2cd:	83 c4 10             	add    $0x10,%esp
c019b2d0:	83 ec 0c             	sub    $0xc,%esp
c019b2d3:	8d 45 e0             	lea    -0x20(%ebp),%eax
c019b2d6:	50                   	push   %eax
c019b2d7:	e8 5f ff ff ff       	call   c019b23b <print_str>
c019b2dc:	83 c4 10             	add    $0x10,%esp
c019b2df:	90                   	nop
c019b2e0:	c9                   	leave  
c019b2e1:	c3                   	ret    

c019b2e2 <printk>:
c019b2e2:	55                   	push   %ebp
c019b2e3:	89 e5                	mov    %esp,%ebp
c019b2e5:	57                   	push   %edi
c019b2e6:	81 ec 14 04 00 00    	sub    $0x414,%esp
c019b2ec:	8d 45 08             	lea    0x8(%ebp),%eax
c019b2ef:	89 45 f4             	mov    %eax,-0xc(%ebp)
c019b2f2:	c7 85 f4 fb ff ff 00 	movl   $0x0,-0x40c(%ebp)
c019b2f9:	00 00 00 
c019b2fc:	8d 95 f8 fb ff ff    	lea    -0x408(%ebp),%edx
c019b302:	b8 00 00 00 00       	mov    $0x0,%eax
c019b307:	b9 ff 00 00 00       	mov    $0xff,%ecx
c019b30c:	89 d7                	mov    %edx,%edi
c019b30e:	f3 ab                	rep stos %eax,%es:(%edi)
c019b310:	8b 45 08             	mov    0x8(%ebp),%eax
c019b313:	83 ec 04             	sub    $0x4,%esp
c019b316:	ff 75 f4             	push   -0xc(%ebp)
c019b319:	50                   	push   %eax
c019b31a:	8d 85 f4 fb ff ff    	lea    -0x40c(%ebp),%eax
c019b320:	50                   	push   %eax
c019b321:	e8 06 f9 ff ff       	call   c019ac2c <vsprintf>
c019b326:	83 c4 10             	add    $0x10,%esp
c019b329:	83 ec 0c             	sub    $0xc,%esp
c019b32c:	8d 85 f4 fb ff ff    	lea    -0x40c(%ebp),%eax
c019b332:	50                   	push   %eax
c019b333:	e8 03 ff ff ff       	call   c019b23b <print_str>
c019b338:	83 c4 10             	add    $0x10,%esp
c019b33b:	90                   	nop
c019b33c:	8b 7d fc             	mov    -0x4(%ebp),%edi
c019b33f:	c9                   	leave  
c019b340:	c3                   	ret    

c019b341 <memset>:
c019b341:	55                   	push   %ebp
c019b342:	89 e5                	mov    %esp,%ebp
c019b344:	83 ec 28             	sub    $0x28,%esp
c019b347:	8b 45 0c             	mov    0xc(%ebp),%eax
c019b34a:	88 45 e4             	mov    %al,-0x1c(%ebp)
c019b34d:	83 7d 08 00          	cmpl   $0x0,0x8(%ebp)
c019b351:	75 17                	jne    c019b36a <memset+0x29>
c019b353:	83 ec 04             	sub    $0x4,%esp
c019b356:	68 4c c3 19 c0       	push   $0xc019c34c
c019b35b:	6a 06                	push   $0x6
c019b35d:	68 28 c3 19 c0       	push   $0xc019c328
c019b362:	e8 02 06 00 00       	call   c019b969 <panic_spin>
c019b367:	83 c4 10             	add    $0x10,%esp
c019b36a:	8b 45 08             	mov    0x8(%ebp),%eax
c019b36d:	89 45 f4             	mov    %eax,-0xc(%ebp)
c019b370:	eb 0f                	jmp    c019b381 <memset+0x40>
c019b372:	8b 45 f4             	mov    -0xc(%ebp),%eax
c019b375:	8d 50 01             	lea    0x1(%eax),%edx
c019b378:	89 55 f4             	mov    %edx,-0xc(%ebp)
c019b37b:	0f b6 55 e4          	movzbl -0x1c(%ebp),%edx
c019b37f:	88 10                	mov    %dl,(%eax)
c019b381:	8b 45 10             	mov    0x10(%ebp),%eax
c019b384:	8d 50 ff             	lea    -0x1(%eax),%edx
c019b387:	89 55 10             	mov    %edx,0x10(%ebp)
c019b38a:	85 c0                	test   %eax,%eax
c019b38c:	75 e4                	jne    c019b372 <memset+0x31>
c019b38e:	90                   	nop
c019b38f:	90                   	nop
c019b390:	c9                   	leave  
c019b391:	c3                   	ret    

c019b392 <memcpy>:
c019b392:	55                   	push   %ebp
c019b393:	89 e5                	mov    %esp,%ebp
c019b395:	83 ec 18             	sub    $0x18,%esp
c019b398:	83 7d 08 00          	cmpl   $0x0,0x8(%ebp)
c019b39c:	74 06                	je     c019b3a4 <memcpy+0x12>
c019b39e:	83 7d 0c 00          	cmpl   $0x0,0xc(%ebp)
c019b3a2:	75 17                	jne    c019b3bb <memcpy+0x29>
c019b3a4:	83 ec 04             	sub    $0x4,%esp
c019b3a7:	68 54 c3 19 c0       	push   $0xc019c354
c019b3ac:	6a 0f                	push   $0xf
c019b3ae:	68 28 c3 19 c0       	push   $0xc019c328
c019b3b3:	e8 b1 05 00 00       	call   c019b969 <panic_spin>
c019b3b8:	83 c4 10             	add    $0x10,%esp
c019b3bb:	8b 45 08             	mov    0x8(%ebp),%eax
c019b3be:	89 45 f4             	mov    %eax,-0xc(%ebp)
c019b3c1:	8b 45 0c             	mov    0xc(%ebp),%eax
c019b3c4:	89 45 f0             	mov    %eax,-0x10(%ebp)
c019b3c7:	eb 17                	jmp    c019b3e0 <memcpy+0x4e>
c019b3c9:	8b 55 f0             	mov    -0x10(%ebp),%edx
c019b3cc:	8d 42 01             	lea    0x1(%edx),%eax
c019b3cf:	89 45 f0             	mov    %eax,-0x10(%ebp)
c019b3d2:	8b 45 f4             	mov    -0xc(%ebp),%eax
c019b3d5:	8d 48 01             	lea    0x1(%eax),%ecx
c019b3d8:	89 4d f4             	mov    %ecx,-0xc(%ebp)
c019b3db:	0f b6 12             	movzbl (%edx),%edx
c019b3de:	88 10                	mov    %dl,(%eax)
c019b3e0:	8b 45 10             	mov    0x10(%ebp),%eax
c019b3e3:	8d 50 ff             	lea    -0x1(%eax),%edx
c019b3e6:	89 55 10             	mov    %edx,0x10(%ebp)
c019b3e9:	85 c0                	test   %eax,%eax
c019b3eb:	75 dc                	jne    c019b3c9 <memcpy+0x37>
c019b3ed:	90                   	nop
c019b3ee:	90                   	nop
c019b3ef:	c9                   	leave  
c019b3f0:	c3                   	ret    

c019b3f1 <memcmp>:
c019b3f1:	55                   	push   %ebp
c019b3f2:	89 e5                	mov    %esp,%ebp
c019b3f4:	83 ec 18             	sub    $0x18,%esp
c019b3f7:	8b 45 08             	mov    0x8(%ebp),%eax
c019b3fa:	89 45 f4             	mov    %eax,-0xc(%ebp)
c019b3fd:	8b 45 0c             	mov    0xc(%ebp),%eax
c019b400:	89 45 f0             	mov    %eax,-0x10(%ebp)
c019b403:	83 7d f4 00          	cmpl   $0x0,-0xc(%ebp)
c019b407:	74 06                	je     c019b40f <memcmp+0x1e>
c019b409:	83 7d f0 00          	cmpl   $0x0,-0x10(%ebp)
c019b40d:	75 4f                	jne    c019b45e <memcmp+0x6d>
c019b40f:	83 ec 04             	sub    $0x4,%esp
c019b412:	68 5c c3 19 c0       	push   $0xc019c35c
c019b417:	6a 1b                	push   $0x1b
c019b419:	68 28 c3 19 c0       	push   $0xc019c328
c019b41e:	e8 46 05 00 00       	call   c019b969 <panic_spin>
c019b423:	83 c4 10             	add    $0x10,%esp
c019b426:	eb 36                	jmp    c019b45e <memcmp+0x6d>
c019b428:	8b 45 f4             	mov    -0xc(%ebp),%eax
c019b42b:	0f b6 10             	movzbl (%eax),%edx
c019b42e:	8b 45 f0             	mov    -0x10(%ebp),%eax
c019b431:	0f b6 00             	movzbl (%eax),%eax
c019b434:	38 c2                	cmp    %al,%dl
c019b436:	74 1e                	je     c019b456 <memcmp+0x65>
c019b438:	8b 45 f4             	mov    -0xc(%ebp),%eax
c019b43b:	0f b6 10             	movzbl (%eax),%edx
c019b43e:	8b 45 f0             	mov    -0x10(%ebp),%eax
c019b441:	0f b6 00             	movzbl (%eax),%eax
c019b444:	38 c2                	cmp    %al,%dl
c019b446:	7e 07                	jle    c019b44f <memcmp+0x5e>
c019b448:	b8 01 00 00 00       	mov    $0x1,%eax
c019b44d:	eb 21                	jmp    c019b470 <memcmp+0x7f>
c019b44f:	b8 ff ff ff ff       	mov    $0xffffffff,%eax
c019b454:	eb 1a                	jmp    c019b470 <memcmp+0x7f>
c019b456:	83 45 f4 01          	addl   $0x1,-0xc(%ebp)
c019b45a:	83 45 f0 01          	addl   $0x1,-0x10(%ebp)
c019b45e:	8b 45 10             	mov    0x10(%ebp),%eax
c019b461:	8d 50 ff             	lea    -0x1(%eax),%edx
c019b464:	89 55 10             	mov    %edx,0x10(%ebp)
c019b467:	85 c0                	test   %eax,%eax
c019b469:	75 bd                	jne    c019b428 <memcmp+0x37>
c019b46b:	b8 00 00 00 00       	mov    $0x0,%eax
c019b470:	c9                   	leave  
c019b471:	c3                   	ret    

c019b472 <strcpy>:
c019b472:	55                   	push   %ebp
c019b473:	89 e5                	mov    %esp,%ebp
c019b475:	83 ec 18             	sub    $0x18,%esp
c019b478:	83 7d 08 00          	cmpl   $0x0,0x8(%ebp)
c019b47c:	74 06                	je     c019b484 <strcpy+0x12>
c019b47e:	83 7d 0c 00          	cmpl   $0x0,0xc(%ebp)
c019b482:	75 17                	jne    c019b49b <strcpy+0x29>
c019b484:	83 ec 04             	sub    $0x4,%esp
c019b487:	68 64 c3 19 c0       	push   $0xc019c364
c019b48c:	6a 29                	push   $0x29
c019b48e:	68 28 c3 19 c0       	push   $0xc019c328
c019b493:	e8 d1 04 00 00       	call   c019b969 <panic_spin>
c019b498:	83 c4 10             	add    $0x10,%esp
c019b49b:	8b 45 08             	mov    0x8(%ebp),%eax
c019b49e:	89 45 f4             	mov    %eax,-0xc(%ebp)
c019b4a1:	90                   	nop
c019b4a2:	8b 55 0c             	mov    0xc(%ebp),%edx
c019b4a5:	8d 42 01             	lea    0x1(%edx),%eax
c019b4a8:	89 45 0c             	mov    %eax,0xc(%ebp)
c019b4ab:	8b 45 08             	mov    0x8(%ebp),%eax
c019b4ae:	8d 48 01             	lea    0x1(%eax),%ecx
c019b4b1:	89 4d 08             	mov    %ecx,0x8(%ebp)
c019b4b4:	0f b6 12             	movzbl (%edx),%edx
c019b4b7:	88 10                	mov    %dl,(%eax)
c019b4b9:	0f b6 00             	movzbl (%eax),%eax
c019b4bc:	84 c0                	test   %al,%al
c019b4be:	75 e2                	jne    c019b4a2 <strcpy+0x30>
c019b4c0:	8b 45 f4             	mov    -0xc(%ebp),%eax
c019b4c3:	c9                   	leave  
c019b4c4:	c3                   	ret    

c019b4c5 <strlen>:
c019b4c5:	55                   	push   %ebp
c019b4c6:	89 e5                	mov    %esp,%ebp
c019b4c8:	83 ec 18             	sub    $0x18,%esp
c019b4cb:	83 7d 08 00          	cmpl   $0x0,0x8(%ebp)
c019b4cf:	75 17                	jne    c019b4e8 <strlen+0x23>
c019b4d1:	83 ec 04             	sub    $0x4,%esp
c019b4d4:	68 6c c3 19 c0       	push   $0xc019c36c
c019b4d9:	6a 32                	push   $0x32
c019b4db:	68 28 c3 19 c0       	push   $0xc019c328
c019b4e0:	e8 84 04 00 00       	call   c019b969 <panic_spin>
c019b4e5:	83 c4 10             	add    $0x10,%esp
c019b4e8:	8b 45 08             	mov    0x8(%ebp),%eax
c019b4eb:	89 45 f4             	mov    %eax,-0xc(%ebp)
c019b4ee:	90                   	nop
c019b4ef:	8b 45 f4             	mov    -0xc(%ebp),%eax
c019b4f2:	8d 50 01             	lea    0x1(%eax),%edx
c019b4f5:	89 55 f4             	mov    %edx,-0xc(%ebp)
c019b4f8:	0f b6 00             	movzbl (%eax),%eax
c019b4fb:	84 c0                	test   %al,%al
c019b4fd:	75 f0                	jne    c019b4ef <strlen+0x2a>
c019b4ff:	8b 45 f4             	mov    -0xc(%ebp),%eax
c019b502:	2b 45 08             	sub    0x8(%ebp),%eax
c019b505:	83 e8 01             	sub    $0x1,%eax
c019b508:	c9                   	leave  
c019b509:	c3                   	ret    

c019b50a <strcmp>:
c019b50a:	55                   	push   %ebp
c019b50b:	89 e5                	mov    %esp,%ebp
c019b50d:	83 ec 08             	sub    $0x8,%esp
c019b510:	83 7d 08 00          	cmpl   $0x0,0x8(%ebp)
c019b514:	74 06                	je     c019b51c <strcmp+0x12>
c019b516:	83 7d 0c 00          	cmpl   $0x0,0xc(%ebp)
c019b51a:	75 21                	jne    c019b53d <strcmp+0x33>
c019b51c:	83 ec 04             	sub    $0x4,%esp
c019b51f:	68 74 c3 19 c0       	push   $0xc019c374
c019b524:	6a 3b                	push   $0x3b
c019b526:	68 28 c3 19 c0       	push   $0xc019c328
c019b52b:	e8 39 04 00 00       	call   c019b969 <panic_spin>
c019b530:	83 c4 10             	add    $0x10,%esp
c019b533:	eb 08                	jmp    c019b53d <strcmp+0x33>
c019b535:	83 45 08 01          	addl   $0x1,0x8(%ebp)
c019b539:	83 45 0c 01          	addl   $0x1,0xc(%ebp)
c019b53d:	8b 45 08             	mov    0x8(%ebp),%eax
c019b540:	0f b6 00             	movzbl (%eax),%eax
c019b543:	84 c0                	test   %al,%al
c019b545:	74 10                	je     c019b557 <strcmp+0x4d>
c019b547:	8b 45 08             	mov    0x8(%ebp),%eax
c019b54a:	0f b6 10             	movzbl (%eax),%edx
c019b54d:	8b 45 0c             	mov    0xc(%ebp),%eax
c019b550:	0f b6 00             	movzbl (%eax),%eax
c019b553:	38 c2                	cmp    %al,%dl
c019b555:	74 de                	je     c019b535 <strcmp+0x2b>
c019b557:	8b 45 08             	mov    0x8(%ebp),%eax
c019b55a:	0f b6 10             	movzbl (%eax),%edx
c019b55d:	8b 45 0c             	mov    0xc(%ebp),%eax
c019b560:	0f b6 00             	movzbl (%eax),%eax
c019b563:	38 c2                	cmp    %al,%dl
c019b565:	7c 13                	jl     c019b57a <strcmp+0x70>
c019b567:	8b 45 08             	mov    0x8(%ebp),%eax
c019b56a:	0f b6 10             	movzbl (%eax),%edx
c019b56d:	8b 45 0c             	mov    0xc(%ebp),%eax
c019b570:	0f b6 00             	movzbl (%eax),%eax
c019b573:	38 c2                	cmp    %al,%dl
c019b575:	0f 9f c0             	setg   %al
c019b578:	eb 05                	jmp    c019b57f <strcmp+0x75>
c019b57a:	b8 ff ff ff ff       	mov    $0xffffffff,%eax
c019b57f:	c9                   	leave  
c019b580:	c3                   	ret    

c019b581 <strchr>:
c019b581:	55                   	push   %ebp
c019b582:	89 e5                	mov    %esp,%ebp
c019b584:	83 ec 18             	sub    $0x18,%esp
c019b587:	8b 45 0c             	mov    0xc(%ebp),%eax
c019b58a:	88 45 f4             	mov    %al,-0xc(%ebp)
c019b58d:	83 7d 08 00          	cmpl   $0x0,0x8(%ebp)
c019b591:	75 33                	jne    c019b5c6 <strchr+0x45>
c019b593:	83 ec 04             	sub    $0x4,%esp
c019b596:	68 7c c3 19 c0       	push   $0xc019c37c
c019b59b:	6a 46                	push   $0x46
c019b59d:	68 28 c3 19 c0       	push   $0xc019c328
c019b5a2:	e8 c2 03 00 00       	call   c019b969 <panic_spin>
c019b5a7:	83 c4 10             	add    $0x10,%esp
c019b5aa:	eb 1a                	jmp    c019b5c6 <strchr+0x45>
c019b5ac:	8b 45 08             	mov    0x8(%ebp),%eax
c019b5af:	0f b6 00             	movzbl (%eax),%eax
c019b5b2:	0f be d0             	movsbl %al,%edx
c019b5b5:	0f b6 45 f4          	movzbl -0xc(%ebp),%eax
c019b5b9:	39 c2                	cmp    %eax,%edx
c019b5bb:	75 05                	jne    c019b5c2 <strchr+0x41>
c019b5bd:	8b 45 08             	mov    0x8(%ebp),%eax
c019b5c0:	eb 13                	jmp    c019b5d5 <strchr+0x54>
c019b5c2:	83 45 08 01          	addl   $0x1,0x8(%ebp)
c019b5c6:	8b 45 08             	mov    0x8(%ebp),%eax
c019b5c9:	0f b6 00             	movzbl (%eax),%eax
c019b5cc:	84 c0                	test   %al,%al
c019b5ce:	75 dc                	jne    c019b5ac <strchr+0x2b>
c019b5d0:	b8 00 00 00 00       	mov    $0x0,%eax
c019b5d5:	c9                   	leave  
c019b5d6:	c3                   	ret    

c019b5d7 <strrchr>:
c019b5d7:	55                   	push   %ebp
c019b5d8:	89 e5                	mov    %esp,%ebp
c019b5da:	83 ec 28             	sub    $0x28,%esp
c019b5dd:	8b 45 0c             	mov    0xc(%ebp),%eax
c019b5e0:	88 45 e4             	mov    %al,-0x1c(%ebp)
c019b5e3:	83 7d 08 00          	cmpl   $0x0,0x8(%ebp)
c019b5e7:	75 17                	jne    c019b600 <strrchr+0x29>
c019b5e9:	83 ec 04             	sub    $0x4,%esp
c019b5ec:	68 84 c3 19 c0       	push   $0xc019c384
c019b5f1:	6a 54                	push   $0x54
c019b5f3:	68 28 c3 19 c0       	push   $0xc019c328
c019b5f8:	e8 6c 03 00 00       	call   c019b969 <panic_spin>
c019b5fd:	83 c4 10             	add    $0x10,%esp
c019b600:	c7 45 f4 00 00 00 00 	movl   $0x0,-0xc(%ebp)
c019b607:	eb 1b                	jmp    c019b624 <strrchr+0x4d>
c019b609:	8b 45 08             	mov    0x8(%ebp),%eax
c019b60c:	0f b6 00             	movzbl (%eax),%eax
c019b60f:	0f be d0             	movsbl %al,%edx
c019b612:	0f b6 45 e4          	movzbl -0x1c(%ebp),%eax
c019b616:	39 c2                	cmp    %eax,%edx
c019b618:	75 06                	jne    c019b620 <strrchr+0x49>
c019b61a:	8b 45 08             	mov    0x8(%ebp),%eax
c019b61d:	89 45 f4             	mov    %eax,-0xc(%ebp)
c019b620:	83 45 08 01          	addl   $0x1,0x8(%ebp)
c019b624:	8b 45 08             	mov    0x8(%ebp),%eax
c019b627:	0f b6 00             	movzbl (%eax),%eax
c019b62a:	84 c0                	test   %al,%al
c019b62c:	75 db                	jne    c019b609 <strrchr+0x32>
c019b62e:	8b 45 f4             	mov    -0xc(%ebp),%eax
c019b631:	c9                   	leave  
c019b632:	c3                   	ret    

c019b633 <strcat>:
c019b633:	55                   	push   %ebp
c019b634:	89 e5                	mov    %esp,%ebp
c019b636:	83 ec 18             	sub    $0x18,%esp
c019b639:	83 7d 08 00          	cmpl   $0x0,0x8(%ebp)
c019b63d:	74 06                	je     c019b645 <strcat+0x12>
c019b63f:	83 7d 0c 00          	cmpl   $0x0,0xc(%ebp)
c019b643:	75 17                	jne    c019b65c <strcat+0x29>
c019b645:	83 ec 04             	sub    $0x4,%esp
c019b648:	68 8c c3 19 c0       	push   $0xc019c38c
c019b64d:	6a 63                	push   $0x63
c019b64f:	68 28 c3 19 c0       	push   $0xc019c328
c019b654:	e8 10 03 00 00       	call   c019b969 <panic_spin>
c019b659:	83 c4 10             	add    $0x10,%esp
c019b65c:	8b 45 08             	mov    0x8(%ebp),%eax
c019b65f:	89 45 f4             	mov    %eax,-0xc(%ebp)
c019b662:	90                   	nop
c019b663:	8b 45 f4             	mov    -0xc(%ebp),%eax
c019b666:	8d 50 01             	lea    0x1(%eax),%edx
c019b669:	89 55 f4             	mov    %edx,-0xc(%ebp)
c019b66c:	0f b6 00             	movzbl (%eax),%eax
c019b66f:	84 c0                	test   %al,%al
c019b671:	75 f0                	jne    c019b663 <strcat+0x30>
c019b673:	83 6d f4 01          	subl   $0x1,-0xc(%ebp)
c019b677:	90                   	nop
c019b678:	8b 55 0c             	mov    0xc(%ebp),%edx
c019b67b:	8d 42 01             	lea    0x1(%edx),%eax
c019b67e:	89 45 0c             	mov    %eax,0xc(%ebp)
c019b681:	8b 45 f4             	mov    -0xc(%ebp),%eax
c019b684:	8d 48 01             	lea    0x1(%eax),%ecx
c019b687:	89 4d f4             	mov    %ecx,-0xc(%ebp)
c019b68a:	0f b6 12             	movzbl (%edx),%edx
c019b68d:	88 10                	mov    %dl,(%eax)
c019b68f:	0f b6 00             	movzbl (%eax),%eax
c019b692:	84 c0                	test   %al,%al
c019b694:	75 e2                	jne    c019b678 <strcat+0x45>
c019b696:	8b 45 08             	mov    0x8(%ebp),%eax
c019b699:	c9                   	leave  
c019b69a:	c3                   	ret    

c019b69b <strchrs>:
c019b69b:	55                   	push   %ebp
c019b69c:	89 e5                	mov    %esp,%ebp
c019b69e:	83 ec 28             	sub    $0x28,%esp
c019b6a1:	8b 45 0c             	mov    0xc(%ebp),%eax
c019b6a4:	88 45 e4             	mov    %al,-0x1c(%ebp)
c019b6a7:	83 7d 08 00          	cmpl   $0x0,0x8(%ebp)
c019b6ab:	75 17                	jne    c019b6c4 <strchrs+0x29>
c019b6ad:	83 ec 04             	sub    $0x4,%esp
c019b6b0:	68 94 c3 19 c0       	push   $0xc019c394
c019b6b5:	6a 6e                	push   $0x6e
c019b6b7:	68 28 c3 19 c0       	push   $0xc019c328
c019b6bc:	e8 a8 02 00 00       	call   c019b969 <panic_spin>
c019b6c1:	83 c4 10             	add    $0x10,%esp
c019b6c4:	c7 45 f4 00 00 00 00 	movl   $0x0,-0xc(%ebp)
c019b6cb:	8b 45 08             	mov    0x8(%ebp),%eax
c019b6ce:	89 45 f0             	mov    %eax,-0x10(%ebp)
c019b6d1:	eb 19                	jmp    c019b6ec <strchrs+0x51>
c019b6d3:	8b 45 f0             	mov    -0x10(%ebp),%eax
c019b6d6:	0f b6 00             	movzbl (%eax),%eax
c019b6d9:	0f be d0             	movsbl %al,%edx
c019b6dc:	0f b6 45 e4          	movzbl -0x1c(%ebp),%eax
c019b6e0:	39 c2                	cmp    %eax,%edx
c019b6e2:	75 04                	jne    c019b6e8 <strchrs+0x4d>
c019b6e4:	83 45 f4 01          	addl   $0x1,-0xc(%ebp)
c019b6e8:	83 45 f0 01          	addl   $0x1,-0x10(%ebp)
c019b6ec:	8b 45 f0             	mov    -0x10(%ebp),%eax
c019b6ef:	0f b6 00             	movzbl (%eax),%eax
c019b6f2:	84 c0                	test   %al,%al
c019b6f4:	75 dd                	jne    c019b6d3 <strchrs+0x38>
c019b6f6:	8b 45 f4             	mov    -0xc(%ebp),%eax
c019b6f9:	c9                   	leave  
c019b6fa:	c3                   	ret    

c019b6fb <itoa>:
c019b6fb:	55                   	push   %ebp
c019b6fc:	89 e5                	mov    %esp,%ebp
c019b6fe:	83 ec 10             	sub    $0x10,%esp
c019b701:	8b 45 0c             	mov    0xc(%ebp),%eax
c019b704:	89 45 fc             	mov    %eax,-0x4(%ebp)
c019b707:	8b 45 0c             	mov    0xc(%ebp),%eax
c019b70a:	89 45 f8             	mov    %eax,-0x8(%ebp)
c019b70d:	83 7d 08 00          	cmpl   $0x0,0x8(%ebp)
c019b711:	79 59                	jns    c019b76c <itoa+0x71>
c019b713:	8b 45 fc             	mov    -0x4(%ebp),%eax
c019b716:	8d 50 01             	lea    0x1(%eax),%edx
c019b719:	89 55 fc             	mov    %edx,-0x4(%ebp)
c019b71c:	c6 00 2d             	movb   $0x2d,(%eax)
c019b71f:	83 45 f8 01          	addl   $0x1,-0x8(%ebp)
c019b723:	f7 5d 08             	negl   0x8(%ebp)
c019b726:	eb 44                	jmp    c019b76c <itoa+0x71>
c019b728:	8b 45 08             	mov    0x8(%ebp),%eax
c019b72b:	99                   	cltd   
c019b72c:	f7 7d 10             	idivl  0x10(%ebp)
c019b72f:	89 d0                	mov    %edx,%eax
c019b731:	89 45 f0             	mov    %eax,-0x10(%ebp)
c019b734:	8b 45 08             	mov    0x8(%ebp),%eax
c019b737:	99                   	cltd   
c019b738:	f7 7d 10             	idivl  0x10(%ebp)
c019b73b:	89 45 08             	mov    %eax,0x8(%ebp)
c019b73e:	83 7d f0 09          	cmpl   $0x9,-0x10(%ebp)
c019b742:	76 15                	jbe    c019b759 <itoa+0x5e>
c019b744:	8b 45 f0             	mov    -0x10(%ebp),%eax
c019b747:	8d 48 57             	lea    0x57(%eax),%ecx
c019b74a:	8b 45 fc             	mov    -0x4(%ebp),%eax
c019b74d:	8d 50 01             	lea    0x1(%eax),%edx
c019b750:	89 55 fc             	mov    %edx,-0x4(%ebp)
c019b753:	89 ca                	mov    %ecx,%edx
c019b755:	88 10                	mov    %dl,(%eax)
c019b757:	eb 13                	jmp    c019b76c <itoa+0x71>
c019b759:	8b 45 f0             	mov    -0x10(%ebp),%eax
c019b75c:	8d 48 30             	lea    0x30(%eax),%ecx
c019b75f:	8b 45 fc             	mov    -0x4(%ebp),%eax
c019b762:	8d 50 01             	lea    0x1(%eax),%edx
c019b765:	89 55 fc             	mov    %edx,-0x4(%ebp)
c019b768:	89 ca                	mov    %ecx,%edx
c019b76a:	88 10                	mov    %dl,(%eax)
c019b76c:	83 7d 08 00          	cmpl   $0x0,0x8(%ebp)
c019b770:	7f b6                	jg     c019b728 <itoa+0x2d>
c019b772:	8b 45 fc             	mov    -0x4(%ebp),%eax
c019b775:	8d 50 ff             	lea    -0x1(%eax),%edx
c019b778:	89 55 fc             	mov    %edx,-0x4(%ebp)
c019b77b:	c6 00 00             	movb   $0x0,(%eax)
c019b77e:	eb 25                	jmp    c019b7a5 <itoa+0xaa>
c019b780:	8b 45 f8             	mov    -0x8(%ebp),%eax
c019b783:	0f b6 00             	movzbl (%eax),%eax
c019b786:	88 45 f7             	mov    %al,-0x9(%ebp)
c019b789:	8b 45 fc             	mov    -0x4(%ebp),%eax
c019b78c:	0f b6 10             	movzbl (%eax),%edx
c019b78f:	8b 45 f8             	mov    -0x8(%ebp),%eax
c019b792:	88 10                	mov    %dl,(%eax)
c019b794:	8b 45 fc             	mov    -0x4(%ebp),%eax
c019b797:	0f b6 55 f7          	movzbl -0x9(%ebp),%edx
c019b79b:	88 10                	mov    %dl,(%eax)
c019b79d:	83 45 f8 01          	addl   $0x1,-0x8(%ebp)
c019b7a1:	83 6d fc 01          	subl   $0x1,-0x4(%ebp)
c019b7a5:	8b 45 f8             	mov    -0x8(%ebp),%eax
c019b7a8:	3b 45 fc             	cmp    -0x4(%ebp),%eax
c019b7ab:	72 d3                	jb     c019b780 <itoa+0x85>
c019b7ad:	8b 45 0c             	mov    0xc(%ebp),%eax
c019b7b0:	c9                   	leave  
c019b7b1:	c3                   	ret    

c019b7b2 <uitoa>:
c019b7b2:	55                   	push   %ebp
c019b7b3:	89 e5                	mov    %esp,%ebp
c019b7b5:	83 ec 10             	sub    $0x10,%esp
c019b7b8:	8b 45 0c             	mov    0xc(%ebp),%eax
c019b7bb:	89 45 fc             	mov    %eax,-0x4(%ebp)
c019b7be:	8b 45 0c             	mov    0xc(%ebp),%eax
c019b7c1:	89 45 f8             	mov    %eax,-0x8(%ebp)
c019b7c4:	eb 4e                	jmp    c019b814 <uitoa+0x62>
c019b7c6:	8b 4d 10             	mov    0x10(%ebp),%ecx
c019b7c9:	8b 45 08             	mov    0x8(%ebp),%eax
c019b7cc:	ba 00 00 00 00       	mov    $0x0,%edx
c019b7d1:	f7 f1                	div    %ecx
c019b7d3:	89 55 f0             	mov    %edx,-0x10(%ebp)
c019b7d6:	8b 4d 10             	mov    0x10(%ebp),%ecx
c019b7d9:	8b 45 08             	mov    0x8(%ebp),%eax
c019b7dc:	ba 00 00 00 00       	mov    $0x0,%edx
c019b7e1:	f7 f1                	div    %ecx
c019b7e3:	89 45 08             	mov    %eax,0x8(%ebp)
c019b7e6:	83 7d f0 09          	cmpl   $0x9,-0x10(%ebp)
c019b7ea:	76 15                	jbe    c019b801 <uitoa+0x4f>
c019b7ec:	8b 45 f0             	mov    -0x10(%ebp),%eax
c019b7ef:	8d 48 57             	lea    0x57(%eax),%ecx
c019b7f2:	8b 45 fc             	mov    -0x4(%ebp),%eax
c019b7f5:	8d 50 01             	lea    0x1(%eax),%edx
c019b7f8:	89 55 fc             	mov    %edx,-0x4(%ebp)
c019b7fb:	89 ca                	mov    %ecx,%edx
c019b7fd:	88 10                	mov    %dl,(%eax)
c019b7ff:	eb 13                	jmp    c019b814 <uitoa+0x62>
c019b801:	8b 45 f0             	mov    -0x10(%ebp),%eax
c019b804:	8d 48 30             	lea    0x30(%eax),%ecx
c019b807:	8b 45 fc             	mov    -0x4(%ebp),%eax
c019b80a:	8d 50 01             	lea    0x1(%eax),%edx
c019b80d:	89 55 fc             	mov    %edx,-0x4(%ebp)
c019b810:	89 ca                	mov    %ecx,%edx
c019b812:	88 10                	mov    %dl,(%eax)
c019b814:	83 7d 08 00          	cmpl   $0x0,0x8(%ebp)
c019b818:	75 ac                	jne    c019b7c6 <uitoa+0x14>
c019b81a:	8b 45 fc             	mov    -0x4(%ebp),%eax
c019b81d:	3b 45 0c             	cmp    0xc(%ebp),%eax
c019b820:	75 0c                	jne    c019b82e <uitoa+0x7c>
c019b822:	8b 45 fc             	mov    -0x4(%ebp),%eax
c019b825:	8d 50 01             	lea    0x1(%eax),%edx
c019b828:	89 55 fc             	mov    %edx,-0x4(%ebp)
c019b82b:	c6 00 30             	movb   $0x30,(%eax)
c019b82e:	8b 45 fc             	mov    -0x4(%ebp),%eax
c019b831:	8d 50 ff             	lea    -0x1(%eax),%edx
c019b834:	89 55 fc             	mov    %edx,-0x4(%ebp)
c019b837:	c6 00 00             	movb   $0x0,(%eax)
c019b83a:	eb 25                	jmp    c019b861 <uitoa+0xaf>
c019b83c:	8b 45 f8             	mov    -0x8(%ebp),%eax
c019b83f:	0f b6 00             	movzbl (%eax),%eax
c019b842:	88 45 f7             	mov    %al,-0x9(%ebp)
c019b845:	8b 45 fc             	mov    -0x4(%ebp),%eax
c019b848:	0f b6 10             	movzbl (%eax),%edx
c019b84b:	8b 45 f8             	mov    -0x8(%ebp),%eax
c019b84e:	88 10                	mov    %dl,(%eax)
c019b850:	8b 45 fc             	mov    -0x4(%ebp),%eax
c019b853:	0f b6 55 f7          	movzbl -0x9(%ebp),%edx
c019b857:	88 10                	mov    %dl,(%eax)
c019b859:	83 45 f8 01          	addl   $0x1,-0x8(%ebp)
c019b85d:	83 6d fc 01          	subl   $0x1,-0x4(%ebp)
c019b861:	8b 45 f8             	mov    -0x8(%ebp),%eax
c019b864:	3b 45 fc             	cmp    -0x4(%ebp),%eax
c019b867:	72 d3                	jb     c019b83c <uitoa+0x8a>
c019b869:	8b 45 0c             	mov    0xc(%ebp),%eax
c019b86c:	c9                   	leave  
c019b86d:	c3                   	ret    

c019b86e <strnlen>:
c019b86e:	55                   	push   %ebp
c019b86f:	89 e5                	mov    %esp,%ebp
c019b871:	83 ec 18             	sub    $0x18,%esp
c019b874:	83 7d 08 00          	cmpl   $0x0,0x8(%ebp)
c019b878:	75 1a                	jne    c019b894 <strnlen+0x26>
c019b87a:	83 ec 04             	sub    $0x4,%esp
c019b87d:	68 9c c3 19 c0       	push   $0xc019c39c
c019b882:	68 d1 00 00 00       	push   $0xd1
c019b887:	68 28 c3 19 c0       	push   $0xc019c328
c019b88c:	e8 d8 00 00 00       	call   c019b969 <panic_spin>
c019b891:	83 c4 10             	add    $0x10,%esp
c019b894:	83 ec 0c             	sub    $0xc,%esp
c019b897:	ff 75 08             	push   0x8(%ebp)
c019b89a:	e8 26 fc ff ff       	call   c019b4c5 <strlen>
c019b89f:	83 c4 10             	add    $0x10,%esp
c019b8a2:	89 45 f4             	mov    %eax,-0xc(%ebp)
c019b8a5:	8b 55 0c             	mov    0xc(%ebp),%edx
c019b8a8:	8b 45 f4             	mov    -0xc(%ebp),%eax
c019b8ab:	39 c2                	cmp    %eax,%edx
c019b8ad:	0f 46 c2             	cmovbe %edx,%eax
c019b8b0:	c9                   	leave  
c019b8b1:	c3                   	ret    

c019b8b2 <strstr>:
c019b8b2:	55                   	push   %ebp
c019b8b3:	89 e5                	mov    %esp,%ebp
c019b8b5:	83 ec 18             	sub    $0x18,%esp
c019b8b8:	83 ec 0c             	sub    $0xc,%esp
c019b8bb:	ff 75 0c             	push   0xc(%ebp)
c019b8be:	e8 02 fc ff ff       	call   c019b4c5 <strlen>
c019b8c3:	83 c4 10             	add    $0x10,%esp
c019b8c6:	89 45 f0             	mov    %eax,-0x10(%ebp)
c019b8c9:	83 7d f0 00          	cmpl   $0x0,-0x10(%ebp)
c019b8cd:	75 05                	jne    c019b8d4 <strstr+0x22>
c019b8cf:	8b 45 08             	mov    0x8(%ebp),%eax
c019b8d2:	eb 46                	jmp    c019b91a <strstr+0x68>
c019b8d4:	83 ec 0c             	sub    $0xc,%esp
c019b8d7:	ff 75 08             	push   0x8(%ebp)
c019b8da:	e8 e6 fb ff ff       	call   c019b4c5 <strlen>
c019b8df:	83 c4 10             	add    $0x10,%esp
c019b8e2:	89 45 f4             	mov    %eax,-0xc(%ebp)
c019b8e5:	eb 26                	jmp    c019b90d <strstr+0x5b>
c019b8e7:	83 6d f4 01          	subl   $0x1,-0xc(%ebp)
c019b8eb:	8b 45 f0             	mov    -0x10(%ebp),%eax
c019b8ee:	83 ec 04             	sub    $0x4,%esp
c019b8f1:	50                   	push   %eax
c019b8f2:	ff 75 0c             	push   0xc(%ebp)
c019b8f5:	ff 75 08             	push   0x8(%ebp)
c019b8f8:	e8 f4 fa ff ff       	call   c019b3f1 <memcmp>
c019b8fd:	83 c4 10             	add    $0x10,%esp
c019b900:	85 c0                	test   %eax,%eax
c019b902:	75 05                	jne    c019b909 <strstr+0x57>
c019b904:	8b 45 08             	mov    0x8(%ebp),%eax
c019b907:	eb 11                	jmp    c019b91a <strstr+0x68>
c019b909:	83 45 08 01          	addl   $0x1,0x8(%ebp)
c019b90d:	8b 45 f4             	mov    -0xc(%ebp),%eax
c019b910:	3b 45 f0             	cmp    -0x10(%ebp),%eax
c019b913:	7d d2                	jge    c019b8e7 <strstr+0x35>
c019b915:	b8 00 00 00 00       	mov    $0x0,%eax
c019b91a:	c9                   	leave  
c019b91b:	c3                   	ret    

c019b91c <strncmp>:
c019b91c:	55                   	push   %ebp
c019b91d:	89 e5                	mov    %esp,%ebp
c019b91f:	53                   	push   %ebx
c019b920:	bb 00 00 00 00       	mov    $0x0,%ebx
c019b925:	eb 34                	jmp    c019b95b <strncmp+0x3f>
c019b927:	8b 45 08             	mov    0x8(%ebp),%eax
c019b92a:	0f b6 00             	movzbl (%eax),%eax
c019b92d:	89 c1                	mov    %eax,%ecx
c019b92f:	8b 45 0c             	mov    0xc(%ebp),%eax
c019b932:	8d 50 01             	lea    0x1(%eax),%edx
c019b935:	89 55 0c             	mov    %edx,0xc(%ebp)
c019b938:	0f b6 00             	movzbl (%eax),%eax
c019b93b:	89 c2                	mov    %eax,%edx
c019b93d:	89 c8                	mov    %ecx,%eax
c019b93f:	29 d0                	sub    %edx,%eax
c019b941:	89 c3                	mov    %eax,%ebx
c019b943:	84 db                	test   %bl,%bl
c019b945:	75 1a                	jne    c019b961 <strncmp+0x45>
c019b947:	8b 45 08             	mov    0x8(%ebp),%eax
c019b94a:	8d 50 01             	lea    0x1(%eax),%edx
c019b94d:	89 55 08             	mov    %edx,0x8(%ebp)
c019b950:	0f b6 00             	movzbl (%eax),%eax
c019b953:	84 c0                	test   %al,%al
c019b955:	74 0a                	je     c019b961 <strncmp+0x45>
c019b957:	83 6d 10 01          	subl   $0x1,0x10(%ebp)
c019b95b:	83 7d 10 00          	cmpl   $0x0,0x10(%ebp)
c019b95f:	75 c6                	jne    c019b927 <strncmp+0xb>
c019b961:	0f be c3             	movsbl %bl,%eax
c019b964:	8b 5d fc             	mov    -0x4(%ebp),%ebx
c019b967:	c9                   	leave  
c019b968:	c3                   	ret    

c019b969 <panic_spin>:
c019b969:	55                   	push   %ebp
c019b96a:	89 e5                	mov    %esp,%ebp
c019b96c:	83 ec 08             	sub    $0x8,%esp
c019b96f:	83 ec 0c             	sub    $0xc,%esp
c019b972:	68 a4 c3 19 c0       	push   $0xc019c3a4
c019b977:	e8 66 f9 ff ff       	call   c019b2e2 <printk>
c019b97c:	83 c4 10             	add    $0x10,%esp
c019b97f:	83 ec 0c             	sub    $0xc,%esp
c019b982:	68 ba c3 19 c0       	push   $0xc019c3ba
c019b987:	e8 56 f9 ff ff       	call   c019b2e2 <printk>
c019b98c:	83 c4 10             	add    $0x10,%esp
c019b98f:	83 ec 08             	sub    $0x8,%esp
c019b992:	ff 75 08             	push   0x8(%ebp)
c019b995:	68 c4 c3 19 c0       	push   $0xc019c3c4
c019b99a:	e8 43 f9 ff ff       	call   c019b2e2 <printk>
c019b99f:	83 c4 10             	add    $0x10,%esp
c019b9a2:	83 ec 0c             	sub    $0xc,%esp
c019b9a5:	68 c7 c3 19 c0       	push   $0xc019c3c7
c019b9aa:	e8 33 f9 ff ff       	call   c019b2e2 <printk>
c019b9af:	83 c4 10             	add    $0x10,%esp
c019b9b2:	83 ec 0c             	sub    $0xc,%esp
c019b9b5:	68 c9 c3 19 c0       	push   $0xc019c3c9
c019b9ba:	e8 23 f9 ff ff       	call   c019b2e2 <printk>
c019b9bf:	83 c4 10             	add    $0x10,%esp
c019b9c2:	83 ec 08             	sub    $0x8,%esp
c019b9c5:	ff 75 0c             	push   0xc(%ebp)
c019b9c8:	68 cf c3 19 c0       	push   $0xc019c3cf
c019b9cd:	e8 10 f9 ff ff       	call   c019b2e2 <printk>
c019b9d2:	83 c4 10             	add    $0x10,%esp
c019b9d5:	83 ec 0c             	sub    $0xc,%esp
c019b9d8:	68 c7 c3 19 c0       	push   $0xc019c3c7
c019b9dd:	e8 00 f9 ff ff       	call   c019b2e2 <printk>
c019b9e2:	83 c4 10             	add    $0x10,%esp
c019b9e5:	83 ec 0c             	sub    $0xc,%esp
c019b9e8:	68 d2 c3 19 c0       	push   $0xc019c3d2
c019b9ed:	e8 f0 f8 ff ff       	call   c019b2e2 <printk>
c019b9f2:	83 c4 10             	add    $0x10,%esp
c019b9f5:	83 ec 08             	sub    $0x8,%esp
c019b9f8:	ff 75 10             	push   0x10(%ebp)
c019b9fb:	68 c4 c3 19 c0       	push   $0xc019c3c4
c019ba00:	e8 dd f8 ff ff       	call   c019b2e2 <printk>
c019ba05:	83 c4 10             	add    $0x10,%esp
c019ba08:	83 ec 0c             	sub    $0xc,%esp
c019ba0b:	68 c7 c3 19 c0       	push   $0xc019c3c7
c019ba10:	e8 cd f8 ff ff       	call   c019b2e2 <printk>
c019ba15:	83 c4 10             	add    $0x10,%esp
c019ba18:	eb fe                	jmp    c019ba18 <panic_spin+0xaf>
c019ba1a:	66 90                	xchg   %ax,%ax
c019ba1c:	66 90                	xchg   %ax,%ax
c019ba1e:	66 90                	xchg   %ax,%ax
c019ba20:	66 90                	xchg   %ax,%ax
c019ba22:	66 90                	xchg   %ax,%ax
c019ba24:	66 90                	xchg   %ax,%ax
c019ba26:	66 90                	xchg   %ax,%ax
c019ba28:	66 90                	xchg   %ax,%ax
c019ba2a:	66 90                	xchg   %ax,%ax
c019ba2c:	66 90                	xchg   %ax,%ax
c019ba2e:	66 90                	xchg   %ax,%ax
c019ba30:	66 90                	xchg   %ax,%ax
c019ba32:	66 90                	xchg   %ax,%ax
c019ba34:	66 90                	xchg   %ax,%ax
c019ba36:	66 90                	xchg   %ax,%ax
c019ba38:	66 90                	xchg   %ax,%ax
c019ba3a:	66 90                	xchg   %ax,%ax
c019ba3c:	66 90                	xchg   %ax,%ax
c019ba3e:	66 90                	xchg   %ax,%ax
c019ba40:	66 90                	xchg   %ax,%ax
c019ba42:	66 90                	xchg   %ax,%ax
c019ba44:	66 90                	xchg   %ax,%ax
c019ba46:	66 90                	xchg   %ax,%ax
c019ba48:	66 90                	xchg   %ax,%ax
c019ba4a:	66 90                	xchg   %ax,%ax
c019ba4c:	66 90                	xchg   %ax,%ax
c019ba4e:	66 90                	xchg   %ax,%ax
c019ba50:	66 90                	xchg   %ax,%ax
c019ba52:	66 90                	xchg   %ax,%ax
c019ba54:	66 90                	xchg   %ax,%ax
c019ba56:	66 90                	xchg   %ax,%ax
c019ba58:	66 90                	xchg   %ax,%ax
c019ba5a:	66 90                	xchg   %ax,%ax
c019ba5c:	66 90                	xchg   %ax,%ax
c019ba5e:	66 90                	xchg   %ax,%ax
c019ba60:	66 90                	xchg   %ax,%ax
c019ba62:	66 90                	xchg   %ax,%ax
c019ba64:	66 90                	xchg   %ax,%ax
c019ba66:	66 90                	xchg   %ax,%ax
c019ba68:	66 90                	xchg   %ax,%ax
c019ba6a:	66 90                	xchg   %ax,%ax
c019ba6c:	66 90                	xchg   %ax,%ax
c019ba6e:	66 90                	xchg   %ax,%ax
c019ba70:	66 90                	xchg   %ax,%ax
c019ba72:	66 90                	xchg   %ax,%ax
c019ba74:	66 90                	xchg   %ax,%ax
c019ba76:	66 90                	xchg   %ax,%ax
c019ba78:	66 90                	xchg   %ax,%ax
c019ba7a:	66 90                	xchg   %ax,%ax
c019ba7c:	66 90                	xchg   %ax,%ax
c019ba7e:	66 90                	xchg   %ax,%ax
c019ba80:	66 90                	xchg   %ax,%ax
c019ba82:	66 90                	xchg   %ax,%ax
c019ba84:	66 90                	xchg   %ax,%ax
c019ba86:	66 90                	xchg   %ax,%ax
c019ba88:	66 90                	xchg   %ax,%ax
c019ba8a:	66 90                	xchg   %ax,%ax
c019ba8c:	66 90                	xchg   %ax,%ax
c019ba8e:	66 90                	xchg   %ax,%ax
c019ba90:	66 90                	xchg   %ax,%ax
c019ba92:	66 90                	xchg   %ax,%ax
c019ba94:	66 90                	xchg   %ax,%ax
c019ba96:	66 90                	xchg   %ax,%ax
c019ba98:	66 90                	xchg   %ax,%ax
c019ba9a:	66 90                	xchg   %ax,%ax
c019ba9c:	66 90                	xchg   %ax,%ax
c019ba9e:	66 90                	xchg   %ax,%ax
c019baa0:	66 90                	xchg   %ax,%ax
c019baa2:	66 90                	xchg   %ax,%ax
c019baa4:	66 90                	xchg   %ax,%ax
c019baa6:	66 90                	xchg   %ax,%ax
c019baa8:	66 90                	xchg   %ax,%ax
c019baaa:	66 90                	xchg   %ax,%ax
c019baac:	66 90                	xchg   %ax,%ax
c019baae:	66 90                	xchg   %ax,%ax
c019bab0:	66 90                	xchg   %ax,%ax
c019bab2:	66 90                	xchg   %ax,%ax
c019bab4:	66 90                	xchg   %ax,%ax
c019bab6:	66 90                	xchg   %ax,%ax
c019bab8:	66 90                	xchg   %ax,%ax
c019baba:	66 90                	xchg   %ax,%ax
c019babc:	66 90                	xchg   %ax,%ax
c019babe:	66 90                	xchg   %ax,%ax
c019bac0:	66 90                	xchg   %ax,%ax
c019bac2:	66 90                	xchg   %ax,%ax
c019bac4:	66 90                	xchg   %ax,%ax
c019bac6:	66 90                	xchg   %ax,%ax
c019bac8:	66 90                	xchg   %ax,%ax
c019baca:	66 90                	xchg   %ax,%ax
c019bacc:	66 90                	xchg   %ax,%ax
c019bace:	66 90                	xchg   %ax,%ax
c019bad0:	66 90                	xchg   %ax,%ax
c019bad2:	66 90                	xchg   %ax,%ax
c019bad4:	66 90                	xchg   %ax,%ax
c019bad6:	66 90                	xchg   %ax,%ax
c019bad8:	66 90                	xchg   %ax,%ax
c019bada:	66 90                	xchg   %ax,%ax
c019badc:	66 90                	xchg   %ax,%ax
c019bade:	66 90                	xchg   %ax,%ax
c019bae0:	66 90                	xchg   %ax,%ax
c019bae2:	66 90                	xchg   %ax,%ax
c019bae4:	66 90                	xchg   %ax,%ax
c019bae6:	66 90                	xchg   %ax,%ax
c019bae8:	66 90                	xchg   %ax,%ax
c019baea:	66 90                	xchg   %ax,%ax
c019baec:	66 90                	xchg   %ax,%ax
c019baee:	66 90                	xchg   %ax,%ax
c019baf0:	66 90                	xchg   %ax,%ax
c019baf2:	66 90                	xchg   %ax,%ax
c019baf4:	66 90                	xchg   %ax,%ax
c019baf6:	66 90                	xchg   %ax,%ax
c019baf8:	66 90                	xchg   %ax,%ax
c019bafa:	66 90                	xchg   %ax,%ax
c019bafc:	66 90                	xchg   %ax,%ax
c019bafe:	66 90                	xchg   %ax,%ax
c019bb00:	66 90                	xchg   %ax,%ax
c019bb02:	66 90                	xchg   %ax,%ax
c019bb04:	66 90                	xchg   %ax,%ax
c019bb06:	66 90                	xchg   %ax,%ax
c019bb08:	66 90                	xchg   %ax,%ax
c019bb0a:	66 90                	xchg   %ax,%ax
c019bb0c:	66 90                	xchg   %ax,%ax
c019bb0e:	66 90                	xchg   %ax,%ax
c019bb10:	66 90                	xchg   %ax,%ax
c019bb12:	66 90                	xchg   %ax,%ax
c019bb14:	66 90                	xchg   %ax,%ax
c019bb16:	66 90                	xchg   %ax,%ax
c019bb18:	66 90                	xchg   %ax,%ax
c019bb1a:	66 90                	xchg   %ax,%ax
c019bb1c:	66 90                	xchg   %ax,%ax
c019bb1e:	66 90                	xchg   %ax,%ax
c019bb20:	66 90                	xchg   %ax,%ax
c019bb22:	66 90                	xchg   %ax,%ax
c019bb24:	66 90                	xchg   %ax,%ax
c019bb26:	66 90                	xchg   %ax,%ax
c019bb28:	66 90                	xchg   %ax,%ax
c019bb2a:	66 90                	xchg   %ax,%ax
c019bb2c:	66 90                	xchg   %ax,%ax
c019bb2e:	66 90                	xchg   %ax,%ax
c019bb30:	66 90                	xchg   %ax,%ax
c019bb32:	66 90                	xchg   %ax,%ax
c019bb34:	66 90                	xchg   %ax,%ax
c019bb36:	66 90                	xchg   %ax,%ax
c019bb38:	66 90                	xchg   %ax,%ax
c019bb3a:	66 90                	xchg   %ax,%ax
c019bb3c:	66 90                	xchg   %ax,%ax
c019bb3e:	66 90                	xchg   %ax,%ax
c019bb40:	66 90                	xchg   %ax,%ax
c019bb42:	66 90                	xchg   %ax,%ax
c019bb44:	66 90                	xchg   %ax,%ax
c019bb46:	66 90                	xchg   %ax,%ax
c019bb48:	66 90                	xchg   %ax,%ax
c019bb4a:	66 90                	xchg   %ax,%ax
c019bb4c:	66 90                	xchg   %ax,%ax
c019bb4e:	66 90                	xchg   %ax,%ax
c019bb50:	66 90                	xchg   %ax,%ax
c019bb52:	66 90                	xchg   %ax,%ax
c019bb54:	66 90                	xchg   %ax,%ax
c019bb56:	66 90                	xchg   %ax,%ax
c019bb58:	66 90                	xchg   %ax,%ax
c019bb5a:	66 90                	xchg   %ax,%ax
c019bb5c:	66 90                	xchg   %ax,%ax
c019bb5e:	66 90                	xchg   %ax,%ax
c019bb60:	66 90                	xchg   %ax,%ax
c019bb62:	66 90                	xchg   %ax,%ax
c019bb64:	66 90                	xchg   %ax,%ax
c019bb66:	66 90                	xchg   %ax,%ax
c019bb68:	66 90                	xchg   %ax,%ax
c019bb6a:	66 90                	xchg   %ax,%ax
c019bb6c:	66 90                	xchg   %ax,%ax
c019bb6e:	66 90                	xchg   %ax,%ax
c019bb70:	66 90                	xchg   %ax,%ax
c019bb72:	66 90                	xchg   %ax,%ax
c019bb74:	66 90                	xchg   %ax,%ax
c019bb76:	66 90                	xchg   %ax,%ax
c019bb78:	66 90                	xchg   %ax,%ax
c019bb7a:	66 90                	xchg   %ax,%ax
c019bb7c:	66 90                	xchg   %ax,%ax
c019bb7e:	66 90                	xchg   %ax,%ax
c019bb80:	66 90                	xchg   %ax,%ax
c019bb82:	66 90                	xchg   %ax,%ax
c019bb84:	66 90                	xchg   %ax,%ax
c019bb86:	66 90                	xchg   %ax,%ax
c019bb88:	66 90                	xchg   %ax,%ax
c019bb8a:	66 90                	xchg   %ax,%ax
c019bb8c:	66 90                	xchg   %ax,%ax
c019bb8e:	66 90                	xchg   %ax,%ax
c019bb90:	66 90                	xchg   %ax,%ax
c019bb92:	66 90                	xchg   %ax,%ax
c019bb94:	66 90                	xchg   %ax,%ax
c019bb96:	66 90                	xchg   %ax,%ax
c019bb98:	66 90                	xchg   %ax,%ax
c019bb9a:	66 90                	xchg   %ax,%ax
c019bb9c:	66 90                	xchg   %ax,%ax
c019bb9e:	66 90                	xchg   %ax,%ax
c019bba0:	66 90                	xchg   %ax,%ax
c019bba2:	66 90                	xchg   %ax,%ax
c019bba4:	66 90                	xchg   %ax,%ax
c019bba6:	66 90                	xchg   %ax,%ax
c019bba8:	66 90                	xchg   %ax,%ax
c019bbaa:	66 90                	xchg   %ax,%ax
c019bbac:	66 90                	xchg   %ax,%ax
c019bbae:	66 90                	xchg   %ax,%ax
c019bbb0:	66 90                	xchg   %ax,%ax
c019bbb2:	66 90                	xchg   %ax,%ax
c019bbb4:	66 90                	xchg   %ax,%ax
c019bbb6:	66 90                	xchg   %ax,%ax
c019bbb8:	66 90                	xchg   %ax,%ax
c019bbba:	66 90                	xchg   %ax,%ax
c019bbbc:	66 90                	xchg   %ax,%ax
c019bbbe:	66 90                	xchg   %ax,%ax
c019bbc0:	66 90                	xchg   %ax,%ax
c019bbc2:	66 90                	xchg   %ax,%ax
c019bbc4:	66 90                	xchg   %ax,%ax
c019bbc6:	66 90                	xchg   %ax,%ax
c019bbc8:	66 90                	xchg   %ax,%ax
c019bbca:	66 90                	xchg   %ax,%ax
c019bbcc:	66 90                	xchg   %ax,%ax
c019bbce:	66 90                	xchg   %ax,%ax
c019bbd0:	66 90                	xchg   %ax,%ax
c019bbd2:	66 90                	xchg   %ax,%ax
c019bbd4:	66 90                	xchg   %ax,%ax
c019bbd6:	66 90                	xchg   %ax,%ax
c019bbd8:	66 90                	xchg   %ax,%ax
c019bbda:	66 90                	xchg   %ax,%ax
c019bbdc:	66 90                	xchg   %ax,%ax
c019bbde:	66 90                	xchg   %ax,%ax
c019bbe0:	66 90                	xchg   %ax,%ax
c019bbe2:	66 90                	xchg   %ax,%ax
c019bbe4:	66 90                	xchg   %ax,%ax
c019bbe6:	66 90                	xchg   %ax,%ax
c019bbe8:	66 90                	xchg   %ax,%ax
c019bbea:	66 90                	xchg   %ax,%ax
c019bbec:	66 90                	xchg   %ax,%ax
c019bbee:	66 90                	xchg   %ax,%ax
c019bbf0:	66 90                	xchg   %ax,%ax
c019bbf2:	66 90                	xchg   %ax,%ax
c019bbf4:	66 90                	xchg   %ax,%ax
c019bbf6:	66 90                	xchg   %ax,%ax
c019bbf8:	66 90                	xchg   %ax,%ax
c019bbfa:	66 90                	xchg   %ax,%ax
c019bbfc:	66 90                	xchg   %ax,%ax
c019bbfe:	66 90                	xchg   %ax,%ax
c019bc00:	66 90                	xchg   %ax,%ax
c019bc02:	66 90                	xchg   %ax,%ax
c019bc04:	66 90                	xchg   %ax,%ax
c019bc06:	66 90                	xchg   %ax,%ax
c019bc08:	66 90                	xchg   %ax,%ax
c019bc0a:	66 90                	xchg   %ax,%ax
c019bc0c:	66 90                	xchg   %ax,%ax
c019bc0e:	66 90                	xchg   %ax,%ax
c019bc10:	66 90                	xchg   %ax,%ax
c019bc12:	66 90                	xchg   %ax,%ax
c019bc14:	66 90                	xchg   %ax,%ax
c019bc16:	66 90                	xchg   %ax,%ax
c019bc18:	66 90                	xchg   %ax,%ax
c019bc1a:	66 90                	xchg   %ax,%ax
c019bc1c:	66 90                	xchg   %ax,%ax
c019bc1e:	66 90                	xchg   %ax,%ax
c019bc20:	66 90                	xchg   %ax,%ax
c019bc22:	66 90                	xchg   %ax,%ax
c019bc24:	66 90                	xchg   %ax,%ax
c019bc26:	66 90                	xchg   %ax,%ax
c019bc28:	66 90                	xchg   %ax,%ax
c019bc2a:	66 90                	xchg   %ax,%ax
c019bc2c:	66 90                	xchg   %ax,%ax
c019bc2e:	66 90                	xchg   %ax,%ax
c019bc30:	66 90                	xchg   %ax,%ax
c019bc32:	66 90                	xchg   %ax,%ax
c019bc34:	66 90                	xchg   %ax,%ax
c019bc36:	66 90                	xchg   %ax,%ax
c019bc38:	66 90                	xchg   %ax,%ax
c019bc3a:	66 90                	xchg   %ax,%ax
c019bc3c:	66 90                	xchg   %ax,%ax
c019bc3e:	66 90                	xchg   %ax,%ax
c019bc40:	66 90                	xchg   %ax,%ax
c019bc42:	66 90                	xchg   %ax,%ax
c019bc44:	66 90                	xchg   %ax,%ax
c019bc46:	66 90                	xchg   %ax,%ax
c019bc48:	66 90                	xchg   %ax,%ax
c019bc4a:	66 90                	xchg   %ax,%ax
c019bc4c:	66 90                	xchg   %ax,%ax
c019bc4e:	66 90                	xchg   %ax,%ax
c019bc50:	66 90                	xchg   %ax,%ax
c019bc52:	66 90                	xchg   %ax,%ax
c019bc54:	66 90                	xchg   %ax,%ax
c019bc56:	66 90                	xchg   %ax,%ax
c019bc58:	66 90                	xchg   %ax,%ax
c019bc5a:	66 90                	xchg   %ax,%ax
c019bc5c:	66 90                	xchg   %ax,%ax
c019bc5e:	66 90                	xchg   %ax,%ax
c019bc60:	66 90                	xchg   %ax,%ax
c019bc62:	66 90                	xchg   %ax,%ax
c019bc64:	66 90                	xchg   %ax,%ax
c019bc66:	66 90                	xchg   %ax,%ax
c019bc68:	66 90                	xchg   %ax,%ax
c019bc6a:	66 90                	xchg   %ax,%ax
c019bc6c:	66 90                	xchg   %ax,%ax
c019bc6e:	66 90                	xchg   %ax,%ax
c019bc70:	66 90                	xchg   %ax,%ax
c019bc72:	66 90                	xchg   %ax,%ax
c019bc74:	66 90                	xchg   %ax,%ax
c019bc76:	66 90                	xchg   %ax,%ax
c019bc78:	66 90                	xchg   %ax,%ax
c019bc7a:	66 90                	xchg   %ax,%ax
c019bc7c:	66 90                	xchg   %ax,%ax
c019bc7e:	66 90                	xchg   %ax,%ax
c019bc80:	66 90                	xchg   %ax,%ax
c019bc82:	66 90                	xchg   %ax,%ax
c019bc84:	66 90                	xchg   %ax,%ax
c019bc86:	66 90                	xchg   %ax,%ax
c019bc88:	66 90                	xchg   %ax,%ax
c019bc8a:	66 90                	xchg   %ax,%ax
c019bc8c:	66 90                	xchg   %ax,%ax
c019bc8e:	66 90                	xchg   %ax,%ax
c019bc90:	66 90                	xchg   %ax,%ax
c019bc92:	66 90                	xchg   %ax,%ax
c019bc94:	66 90                	xchg   %ax,%ax
c019bc96:	66 90                	xchg   %ax,%ax
c019bc98:	66 90                	xchg   %ax,%ax
c019bc9a:	66 90                	xchg   %ax,%ax
c019bc9c:	66 90                	xchg   %ax,%ax
c019bc9e:	66 90                	xchg   %ax,%ax
c019bca0:	66 90                	xchg   %ax,%ax
c019bca2:	66 90                	xchg   %ax,%ax
c019bca4:	66 90                	xchg   %ax,%ax
c019bca6:	66 90                	xchg   %ax,%ax
c019bca8:	66 90                	xchg   %ax,%ax
c019bcaa:	66 90                	xchg   %ax,%ax
c019bcac:	66 90                	xchg   %ax,%ax
c019bcae:	66 90                	xchg   %ax,%ax
c019bcb0:	66 90                	xchg   %ax,%ax
c019bcb2:	66 90                	xchg   %ax,%ax
c019bcb4:	66 90                	xchg   %ax,%ax
c019bcb6:	66 90                	xchg   %ax,%ax
c019bcb8:	66 90                	xchg   %ax,%ax
c019bcba:	66 90                	xchg   %ax,%ax
c019bcbc:	66 90                	xchg   %ax,%ax
c019bcbe:	66 90                	xchg   %ax,%ax
c019bcc0:	66 90                	xchg   %ax,%ax
c019bcc2:	66 90                	xchg   %ax,%ax
c019bcc4:	66 90                	xchg   %ax,%ax
c019bcc6:	66 90                	xchg   %ax,%ax
c019bcc8:	66 90                	xchg   %ax,%ax
c019bcca:	66 90                	xchg   %ax,%ax
c019bccc:	66 90                	xchg   %ax,%ax
c019bcce:	66 90                	xchg   %ax,%ax
c019bcd0:	66 90                	xchg   %ax,%ax
c019bcd2:	66 90                	xchg   %ax,%ax
c019bcd4:	66 90                	xchg   %ax,%ax
c019bcd6:	66 90                	xchg   %ax,%ax
c019bcd8:	66 90                	xchg   %ax,%ax
c019bcda:	66 90                	xchg   %ax,%ax
c019bcdc:	66 90                	xchg   %ax,%ax
c019bcde:	66 90                	xchg   %ax,%ax
c019bce0:	66 90                	xchg   %ax,%ax
c019bce2:	66 90                	xchg   %ax,%ax
c019bce4:	66 90                	xchg   %ax,%ax
c019bce6:	66 90                	xchg   %ax,%ax
c019bce8:	66 90                	xchg   %ax,%ax
c019bcea:	66 90                	xchg   %ax,%ax
c019bcec:	66 90                	xchg   %ax,%ax
c019bcee:	66 90                	xchg   %ax,%ax
c019bcf0:	66 90                	xchg   %ax,%ax
c019bcf2:	66 90                	xchg   %ax,%ax
c019bcf4:	66 90                	xchg   %ax,%ax
c019bcf6:	66 90                	xchg   %ax,%ax
c019bcf8:	66 90                	xchg   %ax,%ax
c019bcfa:	66 90                	xchg   %ax,%ax
c019bcfc:	66 90                	xchg   %ax,%ax
c019bcfe:	66 90                	xchg   %ax,%ax
c019bd00:	66 90                	xchg   %ax,%ax
c019bd02:	66 90                	xchg   %ax,%ax
c019bd04:	66 90                	xchg   %ax,%ax
c019bd06:	66 90                	xchg   %ax,%ax
c019bd08:	66 90                	xchg   %ax,%ax
c019bd0a:	66 90                	xchg   %ax,%ax
c019bd0c:	66 90                	xchg   %ax,%ax
c019bd0e:	66 90                	xchg   %ax,%ax
c019bd10:	66 90                	xchg   %ax,%ax
c019bd12:	66 90                	xchg   %ax,%ax
c019bd14:	66 90                	xchg   %ax,%ax
c019bd16:	66 90                	xchg   %ax,%ax
c019bd18:	66 90                	xchg   %ax,%ax
c019bd1a:	66 90                	xchg   %ax,%ax
c019bd1c:	66 90                	xchg   %ax,%ax
c019bd1e:	66 90                	xchg   %ax,%ax
c019bd20:	66 90                	xchg   %ax,%ax
c019bd22:	66 90                	xchg   %ax,%ax
c019bd24:	66 90                	xchg   %ax,%ax
c019bd26:	66 90                	xchg   %ax,%ax
c019bd28:	66 90                	xchg   %ax,%ax
c019bd2a:	66 90                	xchg   %ax,%ax
c019bd2c:	66 90                	xchg   %ax,%ax
c019bd2e:	66 90                	xchg   %ax,%ax
c019bd30:	66 90                	xchg   %ax,%ax
c019bd32:	66 90                	xchg   %ax,%ax
c019bd34:	66 90                	xchg   %ax,%ax
c019bd36:	66 90                	xchg   %ax,%ax
c019bd38:	66 90                	xchg   %ax,%ax
c019bd3a:	66 90                	xchg   %ax,%ax
c019bd3c:	66 90                	xchg   %ax,%ax
c019bd3e:	66 90                	xchg   %ax,%ax
c019bd40:	66 90                	xchg   %ax,%ax
c019bd42:	66 90                	xchg   %ax,%ax
c019bd44:	66 90                	xchg   %ax,%ax
c019bd46:	66 90                	xchg   %ax,%ax
c019bd48:	66 90                	xchg   %ax,%ax
c019bd4a:	66 90                	xchg   %ax,%ax
c019bd4c:	66 90                	xchg   %ax,%ax
c019bd4e:	66 90                	xchg   %ax,%ax
c019bd50:	66 90                	xchg   %ax,%ax
c019bd52:	66 90                	xchg   %ax,%ax
c019bd54:	66 90                	xchg   %ax,%ax
c019bd56:	66 90                	xchg   %ax,%ax
c019bd58:	66 90                	xchg   %ax,%ax
c019bd5a:	66 90                	xchg   %ax,%ax
c019bd5c:	66 90                	xchg   %ax,%ax
c019bd5e:	66 90                	xchg   %ax,%ax
c019bd60:	66 90                	xchg   %ax,%ax
c019bd62:	66 90                	xchg   %ax,%ax
c019bd64:	66 90                	xchg   %ax,%ax
c019bd66:	66 90                	xchg   %ax,%ax
c019bd68:	66 90                	xchg   %ax,%ax
c019bd6a:	66 90                	xchg   %ax,%ax
c019bd6c:	66 90                	xchg   %ax,%ax
c019bd6e:	66 90                	xchg   %ax,%ax
c019bd70:	66 90                	xchg   %ax,%ax
c019bd72:	66 90                	xchg   %ax,%ax
c019bd74:	66 90                	xchg   %ax,%ax
c019bd76:	66 90                	xchg   %ax,%ax
c019bd78:	66 90                	xchg   %ax,%ax
c019bd7a:	66 90                	xchg   %ax,%ax
c019bd7c:	66 90                	xchg   %ax,%ax
c019bd7e:	66 90                	xchg   %ax,%ax
c019bd80:	66 90                	xchg   %ax,%ax
c019bd82:	66 90                	xchg   %ax,%ax
c019bd84:	66 90                	xchg   %ax,%ax
c019bd86:	66 90                	xchg   %ax,%ax
c019bd88:	66 90                	xchg   %ax,%ax
c019bd8a:	66 90                	xchg   %ax,%ax
c019bd8c:	66 90                	xchg   %ax,%ax
c019bd8e:	66 90                	xchg   %ax,%ax
c019bd90:	66 90                	xchg   %ax,%ax
c019bd92:	66 90                	xchg   %ax,%ax
c019bd94:	66 90                	xchg   %ax,%ax
c019bd96:	66 90                	xchg   %ax,%ax
c019bd98:	66 90                	xchg   %ax,%ax
c019bd9a:	66 90                	xchg   %ax,%ax
c019bd9c:	66 90                	xchg   %ax,%ax
c019bd9e:	66 90                	xchg   %ax,%ax
c019bda0:	66 90                	xchg   %ax,%ax
c019bda2:	66 90                	xchg   %ax,%ax
c019bda4:	66 90                	xchg   %ax,%ax
c019bda6:	66 90                	xchg   %ax,%ax
c019bda8:	66 90                	xchg   %ax,%ax
c019bdaa:	66 90                	xchg   %ax,%ax
c019bdac:	66 90                	xchg   %ax,%ax
c019bdae:	66 90                	xchg   %ax,%ax
c019bdb0:	66 90                	xchg   %ax,%ax
c019bdb2:	66 90                	xchg   %ax,%ax
c019bdb4:	66 90                	xchg   %ax,%ax
c019bdb6:	66 90                	xchg   %ax,%ax
c019bdb8:	66 90                	xchg   %ax,%ax
c019bdba:	66 90                	xchg   %ax,%ax
c019bdbc:	66 90                	xchg   %ax,%ax
c019bdbe:	66 90                	xchg   %ax,%ax
c019bdc0:	66 90                	xchg   %ax,%ax
c019bdc2:	66 90                	xchg   %ax,%ax
c019bdc4:	66 90                	xchg   %ax,%ax
c019bdc6:	66 90                	xchg   %ax,%ax
c019bdc8:	66 90                	xchg   %ax,%ax
c019bdca:	66 90                	xchg   %ax,%ax
c019bdcc:	66 90                	xchg   %ax,%ax
c019bdce:	66 90                	xchg   %ax,%ax
c019bdd0:	66 90                	xchg   %ax,%ax
c019bdd2:	66 90                	xchg   %ax,%ax
c019bdd4:	66 90                	xchg   %ax,%ax
c019bdd6:	66 90                	xchg   %ax,%ax
c019bdd8:	66 90                	xchg   %ax,%ax
c019bdda:	66 90                	xchg   %ax,%ax
c019bddc:	66 90                	xchg   %ax,%ax
c019bdde:	66 90                	xchg   %ax,%ax
c019bde0:	66 90                	xchg   %ax,%ax
c019bde2:	66 90                	xchg   %ax,%ax
c019bde4:	66 90                	xchg   %ax,%ax
c019bde6:	66 90                	xchg   %ax,%ax
c019bde8:	66 90                	xchg   %ax,%ax
c019bdea:	66 90                	xchg   %ax,%ax
c019bdec:	66 90                	xchg   %ax,%ax
c019bdee:	66 90                	xchg   %ax,%ax
c019bdf0:	66 90                	xchg   %ax,%ax
c019bdf2:	66 90                	xchg   %ax,%ax
c019bdf4:	66 90                	xchg   %ax,%ax
c019bdf6:	66 90                	xchg   %ax,%ax
c019bdf8:	66 90                	xchg   %ax,%ax
c019bdfa:	66 90                	xchg   %ax,%ax
c019bdfc:	66 90                	xchg   %ax,%ax
c019bdfe:	66 90                	xchg   %ax,%ax
c019be00:	66 90                	xchg   %ax,%ax
c019be02:	66 90                	xchg   %ax,%ax
c019be04:	66 90                	xchg   %ax,%ax
c019be06:	66 90                	xchg   %ax,%ax
c019be08:	66 90                	xchg   %ax,%ax
c019be0a:	66 90                	xchg   %ax,%ax
c019be0c:	66 90                	xchg   %ax,%ax
c019be0e:	66 90                	xchg   %ax,%ax
c019be10:	66 90                	xchg   %ax,%ax
c019be12:	66 90                	xchg   %ax,%ax
c019be14:	66 90                	xchg   %ax,%ax
c019be16:	66 90                	xchg   %ax,%ax
c019be18:	66 90                	xchg   %ax,%ax
c019be1a:	66 90                	xchg   %ax,%ax
c019be1c:	66 90                	xchg   %ax,%ax
c019be1e:	66 90                	xchg   %ax,%ax
c019be20:	66 90                	xchg   %ax,%ax
c019be22:	66 90                	xchg   %ax,%ax
c019be24:	66 90                	xchg   %ax,%ax
c019be26:	66 90                	xchg   %ax,%ax
c019be28:	66 90                	xchg   %ax,%ax
c019be2a:	66 90                	xchg   %ax,%ax
c019be2c:	66 90                	xchg   %ax,%ax
c019be2e:	66 90                	xchg   %ax,%ax
c019be30:	66 90                	xchg   %ax,%ax
c019be32:	66 90                	xchg   %ax,%ax
c019be34:	66 90                	xchg   %ax,%ax
c019be36:	66 90                	xchg   %ax,%ax
c019be38:	66 90                	xchg   %ax,%ax
c019be3a:	66 90                	xchg   %ax,%ax
c019be3c:	66 90                	xchg   %ax,%ax
c019be3e:	66 90                	xchg   %ax,%ax
c019be40:	66 90                	xchg   %ax,%ax
c019be42:	66 90                	xchg   %ax,%ax
c019be44:	66 90                	xchg   %ax,%ax
c019be46:	66 90                	xchg   %ax,%ax
c019be48:	66 90                	xchg   %ax,%ax
c019be4a:	66 90                	xchg   %ax,%ax
c019be4c:	66 90                	xchg   %ax,%ax
c019be4e:	66 90                	xchg   %ax,%ax
c019be50:	66 90                	xchg   %ax,%ax
c019be52:	66 90                	xchg   %ax,%ax
c019be54:	66 90                	xchg   %ax,%ax
c019be56:	66 90                	xchg   %ax,%ax
c019be58:	66 90                	xchg   %ax,%ax
c019be5a:	66 90                	xchg   %ax,%ax
c019be5c:	66 90                	xchg   %ax,%ax
c019be5e:	66 90                	xchg   %ax,%ax
c019be60:	66 90                	xchg   %ax,%ax
c019be62:	66 90                	xchg   %ax,%ax
c019be64:	66 90                	xchg   %ax,%ax
c019be66:	66 90                	xchg   %ax,%ax
c019be68:	66 90                	xchg   %ax,%ax
c019be6a:	66 90                	xchg   %ax,%ax
c019be6c:	66 90                	xchg   %ax,%ax
c019be6e:	66 90                	xchg   %ax,%ax
c019be70:	66 90                	xchg   %ax,%ax
c019be72:	66 90                	xchg   %ax,%ax
c019be74:	66 90                	xchg   %ax,%ax
c019be76:	66 90                	xchg   %ax,%ax
c019be78:	66 90                	xchg   %ax,%ax
c019be7a:	66 90                	xchg   %ax,%ax
c019be7c:	66 90                	xchg   %ax,%ax
c019be7e:	66 90                	xchg   %ax,%ax
c019be80:	66 90                	xchg   %ax,%ax
c019be82:	66 90                	xchg   %ax,%ax
c019be84:	66 90                	xchg   %ax,%ax
c019be86:	66 90                	xchg   %ax,%ax
c019be88:	66 90                	xchg   %ax,%ax
c019be8a:	66 90                	xchg   %ax,%ax
c019be8c:	66 90                	xchg   %ax,%ax
c019be8e:	66 90                	xchg   %ax,%ax
c019be90:	66 90                	xchg   %ax,%ax
c019be92:	66 90                	xchg   %ax,%ax
c019be94:	66 90                	xchg   %ax,%ax
c019be96:	66 90                	xchg   %ax,%ax
c019be98:	66 90                	xchg   %ax,%ax
c019be9a:	66 90                	xchg   %ax,%ax
c019be9c:	66 90                	xchg   %ax,%ax
c019be9e:	66 90                	xchg   %ax,%ax
c019bea0:	66 90                	xchg   %ax,%ax
c019bea2:	66 90                	xchg   %ax,%ax
c019bea4:	66 90                	xchg   %ax,%ax
c019bea6:	66 90                	xchg   %ax,%ax
c019bea8:	66 90                	xchg   %ax,%ax
c019beaa:	66 90                	xchg   %ax,%ax
c019beac:	66 90                	xchg   %ax,%ax
c019beae:	66 90                	xchg   %ax,%ax
c019beb0:	66 90                	xchg   %ax,%ax
c019beb2:	66 90                	xchg   %ax,%ax
c019beb4:	66 90                	xchg   %ax,%ax
c019beb6:	66 90                	xchg   %ax,%ax
c019beb8:	66 90                	xchg   %ax,%ax
c019beba:	66 90                	xchg   %ax,%ax
c019bebc:	66 90                	xchg   %ax,%ax
c019bebe:	66 90                	xchg   %ax,%ax
c019bec0:	66 90                	xchg   %ax,%ax
c019bec2:	66 90                	xchg   %ax,%ax
c019bec4:	66 90                	xchg   %ax,%ax
c019bec6:	66 90                	xchg   %ax,%ax
c019bec8:	66 90                	xchg   %ax,%ax
c019beca:	66 90                	xchg   %ax,%ax
c019becc:	66 90                	xchg   %ax,%ax
c019bece:	66 90                	xchg   %ax,%ax
c019bed0:	66 90                	xchg   %ax,%ax
c019bed2:	66 90                	xchg   %ax,%ax
c019bed4:	66 90                	xchg   %ax,%ax
c019bed6:	66 90                	xchg   %ax,%ax
c019bed8:	66 90                	xchg   %ax,%ax
c019beda:	66 90                	xchg   %ax,%ax
c019bedc:	66 90                	xchg   %ax,%ax
c019bede:	66 90                	xchg   %ax,%ax
c019bee0:	66 90                	xchg   %ax,%ax
c019bee2:	66 90                	xchg   %ax,%ax
c019bee4:	66 90                	xchg   %ax,%ax
c019bee6:	66 90                	xchg   %ax,%ax
c019bee8:	66 90                	xchg   %ax,%ax
c019beea:	66 90                	xchg   %ax,%ax
c019beec:	66 90                	xchg   %ax,%ax
c019beee:	66 90                	xchg   %ax,%ax
c019bef0:	66 90                	xchg   %ax,%ax
c019bef2:	66 90                	xchg   %ax,%ax
c019bef4:	66 90                	xchg   %ax,%ax
c019bef6:	66 90                	xchg   %ax,%ax
c019bef8:	66 90                	xchg   %ax,%ax
c019befa:	66 90                	xchg   %ax,%ax
c019befc:	66 90                	xchg   %ax,%ax
c019befe:	66 90                	xchg   %ax,%ax
c019bf00:	66 90                	xchg   %ax,%ax
c019bf02:	66 90                	xchg   %ax,%ax
c019bf04:	66 90                	xchg   %ax,%ax
c019bf06:	66 90                	xchg   %ax,%ax
c019bf08:	66 90                	xchg   %ax,%ax
c019bf0a:	66 90                	xchg   %ax,%ax
c019bf0c:	66 90                	xchg   %ax,%ax
c019bf0e:	66 90                	xchg   %ax,%ax
c019bf10:	66 90                	xchg   %ax,%ax
c019bf12:	66 90                	xchg   %ax,%ax
c019bf14:	66 90                	xchg   %ax,%ax
c019bf16:	66 90                	xchg   %ax,%ax
c019bf18:	66 90                	xchg   %ax,%ax
c019bf1a:	66 90                	xchg   %ax,%ax
c019bf1c:	66 90                	xchg   %ax,%ax
c019bf1e:	66 90                	xchg   %ax,%ax
c019bf20:	66 90                	xchg   %ax,%ax
c019bf22:	66 90                	xchg   %ax,%ax
c019bf24:	66 90                	xchg   %ax,%ax
c019bf26:	66 90                	xchg   %ax,%ax
c019bf28:	66 90                	xchg   %ax,%ax
c019bf2a:	66 90                	xchg   %ax,%ax
c019bf2c:	66 90                	xchg   %ax,%ax
c019bf2e:	66 90                	xchg   %ax,%ax
c019bf30:	66 90                	xchg   %ax,%ax
c019bf32:	66 90                	xchg   %ax,%ax
c019bf34:	66 90                	xchg   %ax,%ax
c019bf36:	66 90                	xchg   %ax,%ax
c019bf38:	66 90                	xchg   %ax,%ax
c019bf3a:	66 90                	xchg   %ax,%ax
c019bf3c:	66 90                	xchg   %ax,%ax
c019bf3e:	66 90                	xchg   %ax,%ax
c019bf40:	66 90                	xchg   %ax,%ax
c019bf42:	66 90                	xchg   %ax,%ax
c019bf44:	66 90                	xchg   %ax,%ax
c019bf46:	66 90                	xchg   %ax,%ax
c019bf48:	66 90                	xchg   %ax,%ax
c019bf4a:	66 90                	xchg   %ax,%ax
c019bf4c:	66 90                	xchg   %ax,%ax
c019bf4e:	66 90                	xchg   %ax,%ax
c019bf50:	66 90                	xchg   %ax,%ax
c019bf52:	66 90                	xchg   %ax,%ax
c019bf54:	66 90                	xchg   %ax,%ax
c019bf56:	66 90                	xchg   %ax,%ax
c019bf58:	66 90                	xchg   %ax,%ax
c019bf5a:	66 90                	xchg   %ax,%ax
c019bf5c:	66 90                	xchg   %ax,%ax
c019bf5e:	66 90                	xchg   %ax,%ax
c019bf60:	66 90                	xchg   %ax,%ax
c019bf62:	66 90                	xchg   %ax,%ax
c019bf64:	66 90                	xchg   %ax,%ax
c019bf66:	66 90                	xchg   %ax,%ax
c019bf68:	66 90                	xchg   %ax,%ax
c019bf6a:	66 90                	xchg   %ax,%ax
c019bf6c:	66 90                	xchg   %ax,%ax
c019bf6e:	66 90                	xchg   %ax,%ax
c019bf70:	66 90                	xchg   %ax,%ax
c019bf72:	66 90                	xchg   %ax,%ax
c019bf74:	66 90                	xchg   %ax,%ax
c019bf76:	66 90                	xchg   %ax,%ax
c019bf78:	66 90                	xchg   %ax,%ax
c019bf7a:	66 90                	xchg   %ax,%ax
c019bf7c:	66 90                	xchg   %ax,%ax
c019bf7e:	66 90                	xchg   %ax,%ax
c019bf80:	66 90                	xchg   %ax,%ax
c019bf82:	66 90                	xchg   %ax,%ax
c019bf84:	66 90                	xchg   %ax,%ax
c019bf86:	66 90                	xchg   %ax,%ax
c019bf88:	66 90                	xchg   %ax,%ax
c019bf8a:	66 90                	xchg   %ax,%ax
c019bf8c:	66 90                	xchg   %ax,%ax
c019bf8e:	66 90                	xchg   %ax,%ax
c019bf90:	66 90                	xchg   %ax,%ax
c019bf92:	66 90                	xchg   %ax,%ax
c019bf94:	66 90                	xchg   %ax,%ax
c019bf96:	66 90                	xchg   %ax,%ax
c019bf98:	66 90                	xchg   %ax,%ax
c019bf9a:	66 90                	xchg   %ax,%ax
c019bf9c:	66 90                	xchg   %ax,%ax
c019bf9e:	66 90                	xchg   %ax,%ax
c019bfa0:	66 90                	xchg   %ax,%ax
c019bfa2:	66 90                	xchg   %ax,%ax
c019bfa4:	66 90                	xchg   %ax,%ax
c019bfa6:	66 90                	xchg   %ax,%ax
c019bfa8:	66 90                	xchg   %ax,%ax
c019bfaa:	66 90                	xchg   %ax,%ax
c019bfac:	66 90                	xchg   %ax,%ax
c019bfae:	66 90                	xchg   %ax,%ax
c019bfb0:	66 90                	xchg   %ax,%ax
c019bfb2:	66 90                	xchg   %ax,%ax
c019bfb4:	66 90                	xchg   %ax,%ax
c019bfb6:	66 90                	xchg   %ax,%ax
c019bfb8:	66 90                	xchg   %ax,%ax
c019bfba:	66 90                	xchg   %ax,%ax
c019bfbc:	66 90                	xchg   %ax,%ax
c019bfbe:	66 90                	xchg   %ax,%ax
c019bfc0:	66 90                	xchg   %ax,%ax
c019bfc2:	66 90                	xchg   %ax,%ax
c019bfc4:	66 90                	xchg   %ax,%ax
c019bfc6:	66 90                	xchg   %ax,%ax
c019bfc8:	66 90                	xchg   %ax,%ax
c019bfca:	66 90                	xchg   %ax,%ax
c019bfcc:	66 90                	xchg   %ax,%ax
c019bfce:	66 90                	xchg   %ax,%ax
c019bfd0:	66 90                	xchg   %ax,%ax
c019bfd2:	66 90                	xchg   %ax,%ax
c019bfd4:	66 90                	xchg   %ax,%ax
c019bfd6:	66 90                	xchg   %ax,%ax
c019bfd8:	66 90                	xchg   %ax,%ax
c019bfda:	66 90                	xchg   %ax,%ax
c019bfdc:	66 90                	xchg   %ax,%ax
c019bfde:	66 90                	xchg   %ax,%ax
c019bfe0:	66 90                	xchg   %ax,%ax
c019bfe2:	66 90                	xchg   %ax,%ax
c019bfe4:	66 90                	xchg   %ax,%ax
c019bfe6:	66 90                	xchg   %ax,%ax
c019bfe8:	66 90                	xchg   %ax,%ax
c019bfea:	66 90                	xchg   %ax,%ax
c019bfec:	66 90                	xchg   %ax,%ax
c019bfee:	66 90                	xchg   %ax,%ax
c019bff0:	66 90                	xchg   %ax,%ax
c019bff2:	66 90                	xchg   %ax,%ax
c019bff4:	66 90                	xchg   %ax,%ax
c019bff6:	66 90                	xchg   %ax,%ax
c019bff8:	66 90                	xchg   %ax,%ax
c019bffa:	66 90                	xchg   %ax,%ax
c019bffc:	66 90                	xchg   %ax,%ax
c019bffe:	66 90                	xchg   %ax,%ax
